---
triple:          'arm64-apple-darwin'
binary-path:     a.out
relocations:
  - { offsetInCU: 0x3F, offset: 0x3F, size: 0x8, addend: 0x0, symName: _dx, symObjAddr: 0xFB00, symBinAddr: 0x10001C000, symSize: 0x0 }
  - { offsetInCU: 0x79, offset: 0x79, size: 0x8, addend: 0x0, symName: _dy, symObjAddr: 0xFB60, symBinAddr: 0x10001C060, symSize: 0x0 }
  - { offsetInCU: 0x8E, offset: 0x8E, size: 0x8, addend: 0x0, symName: _graph, symObjAddr: 0x69F40, symBinAddr: 0x100020100, symSize: 0x0 }
  - { offsetInCU: 0x678A, offset: 0x678A, size: 0x8, addend: 0x0, symName: __ZNSt3__117__floyd_sift_downB7v160006INS_17_ClassicAlgPolicyERNS_7greaterINS_4pairIxxEEEENS_11__wrap_iterIPS4_EEEET1_SA_OT0_NS_15iterator_traitsISA_E15difference_typeE, symObjAddr: 0x8B8C, symBinAddr: 0x10000B284, symSize: 0x448 }
  - { offsetInCU: 0x94AD, offset: 0x94AD, size: 0x8, addend: 0x0, symName: __ZNSt3__1eqB7v160006IP4edgeEEbRKNS_11__wrap_iterIT_EES7_, symObjAddr: 0x35C4, symBinAddr: 0x100005CBC, symSize: 0x58 }
  - { offsetInCU: 0x95A7, offset: 0x95A7, size: 0x8, addend: 0x0, symName: __ZNSt3__1miB7v160006IPNS_4pairIxxEES3_EEDTmicldtfp_4baseEcldtfp0_4baseEERKNS_11__wrap_iterIT_EERKNS5_IT0_EE, symObjAddr: 0x7FA0, symBinAddr: 0x10000A698, symSize: 0x58 }
  - { offsetInCU: 0x960D, offset: 0x960D, size: 0x8, addend: 0x0, symName: __ZNSt3__19__sift_upB7v160006INS_17_ClassicAlgPolicyERNS_7greaterINS_4pairIxxEEEENS_11__wrap_iterIPS4_EEEEvT1_SA_OT0_NS_15iterator_traitsISA_E15difference_typeE, symObjAddr: 0x7FF8, symBinAddr: 0x10000A6F0, symSize: 0x374 }
  - { offsetInCU: 0x9893, offset: 0x9893, size: 0x8, addend: 0x0, symName: __ZNSt3__110__pop_heapB7v160006INS_17_ClassicAlgPolicyENS_7greaterINS_4pairIxxEEEENS_11__wrap_iterIPS4_EEEEvT1_S9_RT0_NS_15iterator_traitsIS9_E15difference_typeE, symObjAddr: 0x86E4, symBinAddr: 0x10000ADDC, symSize: 0x4A8 }
  - { offsetInCU: 0x9AB5, offset: 0x9AB5, size: 0x8, addend: 0x0, symName: __ZNSt3__17reverseB7v160006INS_11__wrap_iterIPxEEEEvT_S4_, symObjAddr: 0x26A4, symBinAddr: 0x100004D9C, symSize: 0x4 }
  - { offsetInCU: 0x9AEC, offset: 0x9AEC, size: 0x8, addend: 0x0, symName: __ZNSt3__17reverseB7v160006INS_11__wrap_iterIPxEEEEvT_S4_, symObjAddr: 0x26A4, symBinAddr: 0x100004D9C, symSize: 0x4 }
  - { offsetInCU: 0x9B0E, offset: 0x9B0E, size: 0x8, addend: 0x0, symName: __ZNSt3__19__reverseB7v160006INS_17_ClassicAlgPolicyENS_11__wrap_iterIPxEES4_EEvT0_T1_, symObjAddr: 0xC3E4, symBinAddr: 0x10000EADC, symSize: 0x2A8 }
  - { offsetInCU: 0xA86B, offset: 0xA86B, size: 0x8, addend: 0x0, symName: __ZNSt3__14endlB7v160006IcNS_11char_traitsIcEEEERNS_13basic_ostreamIT_T0_EES7_, symObjAddr: 0x33A8, symBinAddr: 0x100005AA0, symSize: 0x21C }
  - { offsetInCU: 0xA9B1, offset: 0xA9B1, size: 0x8, addend: 0x0, symName: __ZNSt3__142__uninitialized_allocator_move_if_noexceptB7v160006INS_9allocatorINS_4pairIxxEEEENS_16reverse_iteratorIPS3_EES7_S7_EET2_RT_T0_T1_S8_, symObjAddr: 0x6AB0, symBinAddr: 0x1000091A8, symSize: 0x424 }
  - { offsetInCU: 0xABCB, offset: 0xABCB, size: 0x8, addend: 0x0, symName: __ZNSt3__120__throw_length_errorB7v160006EPKc, symObjAddr: 0x6258, symBinAddr: 0x100008950, symSize: 0x78 }
  - { offsetInCU: 0xAC0D, offset: 0xAC0D, size: 0x8, addend: 0x0, symName: __ZNSt3__119__allocate_at_leastB7v160006INS_9allocatorINS_4pairIxxEEEEEENS_19__allocation_resultINS_16allocator_traitsIT_E7pointerEEERS7_m, symObjAddr: 0x66D8, symBinAddr: 0x100008DD0, symSize: 0x44 }
  - { offsetInCU: 0xADBE, offset: 0xADBE, size: 0x8, addend: 0x0, symName: __ZNSt3__119__allocator_destroyB7v160006INS_9allocatorINS_4pairIxxEEEENS_16reverse_iteratorINS5_IPS3_EEEES8_EEvRT_T0_T1_, symObjAddr: 0x763C, symBinAddr: 0x100009D34, symSize: 0x140 }
  - { offsetInCU: 0xAF5A, offset: 0xAF5A, size: 0x8, addend: 0x0, symName: __ZNSt3__112__to_addressB7v160006INS_16reverse_iteratorINS1_IPNS_4pairIxxEEEEEEvEENS_5decayIDTclsr19__to_address_helperIT_EE6__callclsr3stdE7declvalIRKS8_EEEEE4typeESA_, symObjAddr: 0x777C, symBinAddr: 0x100009E74, symSize: 0x2C }
  - { offsetInCU: 0xB066, offset: 0xB066, size: 0x8, addend: 0x0, symName: __ZNSt3__1gtB7v160006IxxEEbRKNS_4pairIT_T0_EES6_, symObjAddr: 0x85A0, symBinAddr: 0x10000AC98, symSize: 0xB4 }
  - { offsetInCU: 0xB10B, offset: 0xB10B, size: 0x8, addend: 0x0, symName: __ZNSt3__1eqB7v160006IPNS_4pairIxxEEEEbRKNS_11__wrap_iterIT_EES8_, symObjAddr: 0x8FD4, symBinAddr: 0x10000B6CC, symSize: 0x58 }
  - { offsetInCU: 0xB51E, offset: 0xB51E, size: 0x8, addend: 0x0, symName: __ZNSt3__119__allocate_at_leastB7v160006INS_9allocatorIxEEEENS_19__allocation_resultINS_16allocator_traitsIT_E7pointerEEERS5_m, symObjAddr: 0xB534, symBinAddr: 0x10000DC2C, symSize: 0x44 }
  - { offsetInCU: 0xB6C3, offset: 0xB6C3, size: 0x8, addend: 0x0, symName: __ZNSt3__1eqB7v160006IPxEEbRKNS_11__wrap_iterIT_EES6_, symObjAddr: 0xC810, symBinAddr: 0x10000EF08, symSize: 0x58 }
  - { offsetInCU: 0xB720, offset: 0xB720, size: 0x8, addend: 0x0, symName: __ZNSt3__1ltB7v160006IPxEEbRKNS_11__wrap_iterIT_EES6_, symObjAddr: 0xC68C, symBinAddr: 0x10000ED84, symSize: 0x58 }
  - { offsetInCU: 0xBAEC, offset: 0xBAEC, size: 0x8, addend: 0x0, symName: __ZNSt3__119__allocate_at_leastB7v160006INS_9allocatorI4edgeEEEENS_19__allocation_resultINS_16allocator_traitsIT_E7pointerEEERS6_m, symObjAddr: 0xE234, symBinAddr: 0x10001092C, symSize: 0x44 }
  - { offsetInCU: 0xC0BD, offset: 0xC0BD, size: 0x8, addend: 0x0, symName: __ZNSt3__19use_facetB7v160006INS_5ctypeIcEEEERKT_RKNS_6localeE, symObjAddr: 0xF404, symBinAddr: 0x100011AFC, symSize: 0x100 }
  - { offsetInCU: 0xC3B8, offset: 0xC3B8, size: 0x8, addend: 0x0, symName: __ZSt28__throw_bad_array_new_lengthB7v160006v, symObjAddr: 0x6888, symBinAddr: 0x100008F80, symSize: 0x5C }
  - { offsetInCU: 0xC632, offset: 0xC632, size: 0x8, addend: 0x0, symName: _dist, symObjAddr: 0x53DE40, symBinAddr: 0x1004F4000, symSize: 0x0 }
  - { offsetInCU: 0xC656, offset: 0xC656, size: 0x8, addend: 0x0, symName: _dist2, symObjAddr: 0x7048A0, symBinAddr: 0x1006BAA60, symSize: 0x0 }
  - { offsetInCU: 0xC66B, offset: 0xC66B, size: 0x8, addend: 0x0, symName: _pre, symObjAddr: 0x8CB300, symBinAddr: 0x1008814C0, symSize: 0x0 }
  - { offsetInCU: 0xC693, offset: 0xC693, size: 0x8, addend: 0x0, symName: _.str, symObjAddr: 0x16740, symBinAddr: 0x1000151E0, symSize: 0x0 }
  - { offsetInCU: 0xCBE0, offset: 0xCBE0, size: 0x8, addend: 0x0, symName: __ZNSt3__16vectorINS_4pairIxxEENS_9allocatorIS2_EEE26__swap_out_circular_bufferERNS_14__split_bufferIS2_RS4_EE, symObjAddr: 0x5DA0, symBinAddr: 0x100008498, symSize: 0x2E8 }
  - { offsetInCU: 0xCF89, offset: 0xCF89, size: 0x8, addend: 0x0, symName: __ZNSt3__16vectorIxNS_9allocatorIxEEE26__swap_out_circular_bufferERNS_14__split_bufferIxRS2_EE, symObjAddr: 0xABC8, symBinAddr: 0x10000D2C0, symSize: 0x440 }
  - { offsetInCU: 0xD16E, offset: 0xD16E, size: 0x8, addend: 0x0, symName: __ZNSt3__16vectorI4edgeNS_9allocatorIS1_EEE26__swap_out_circular_bufferERNS_14__split_bufferIS1_RS3_EE, symObjAddr: 0xD8C8, symBinAddr: 0x10000FFC0, symSize: 0x440 }
  - { offsetInCU: 0xF5C0, offset: 0xF5C0, size: 0x8, addend: 0x0, symName: __ZNSt3__16vectorI4edgeNS_9allocatorIS1_EEED1B7v160006Ev, symObjAddr: 0x0, symBinAddr: 0x1000026F8, symSize: 0x1B0 }
  - { offsetInCU: 0xF69D, offset: 0xF69D, size: 0x8, addend: 0x0, symName: __ZNSt3__16vectorI4edgeNS_9allocatorIS1_EEE16__destroy_vectorclB7v160006Ev, symObjAddr: 0x4234, symBinAddr: 0x10000692C, symSize: 0x240 }
  - { offsetInCU: 0xFADD, offset: 0xFADD, size: 0x8, addend: 0x0, symName: __Z8dijkstrax, symObjAddr: 0x1B0, symBinAddr: 0x1000028A8, symSize: 0xCC0 }
  - { offsetInCU: 0xFE5E, offset: 0xFE5E, size: 0x8, addend: 0x0, symName: __ZNSt3__117__compressed_pairIPNS_4pairIxxEENS_9allocatorIS2_EEEC2B7v160006IDnNS_18__default_init_tagEEEOT_OT0_, symObjAddr: 0x4B64, symBinAddr: 0x10000725C, symSize: 0xB0 }
  - { offsetInCU: 0xFEDD, offset: 0xFEDD, size: 0x8, addend: 0x0, symName: __ZNSt3__114priority_queueINS_4pairIxxEENS_6vectorIS2_NS_9allocatorIS2_EEEENS_7greaterIS2_EEE4pushEOS2_, symObjAddr: 0xE70, symBinAddr: 0x100003568, symSize: 0x310 }
  - { offsetInCU: 0x10050, offset: 0x10050, size: 0x8, addend: 0x0, symName: __ZNKSt3__16vectorINS_4pairIxxEENS_9allocatorIS2_EEE5emptyB7v160006Ev, symObjAddr: 0x8654, symBinAddr: 0x10000AD4C, symSize: 0x90 }
  - { offsetInCU: 0x10077, offset: 0x10077, size: 0x8, addend: 0x0, symName: __ZNSt3__16vectorINS_4pairIxxEENS_9allocatorIS2_EEED1B7v160006Ev, symObjAddr: 0x361C, symBinAddr: 0x100005D14, symSize: 0x1B0 }
  - { offsetInCU: 0x100E2, offset: 0x100E2, size: 0x8, addend: 0x0, symName: __ZNKSt3__114priority_queueINS_4pairIxxEENS_6vectorIS2_NS_9allocatorIS2_EEEENS_7greaterIS2_EEE3topB7v160006Ev, symObjAddr: 0x1180, symBinAddr: 0x100003878, symSize: 0xB8 }
  - { offsetInCU: 0x10120, offset: 0x10120, size: 0x8, addend: 0x0, symName: __ZNSt3__114priority_queueINS_4pairIxxEENS_6vectorIS2_NS_9allocatorIS2_EEEENS_7greaterIS2_EEE3popEv, symObjAddr: 0x1238, symBinAddr: 0x100003930, symSize: 0x380 }
  - { offsetInCU: 0x1025A, offset: 0x1025A, size: 0x8, addend: 0x0, symName: __ZNSt3__114priority_queueINS_4pairIxxEENS_6vectorIS2_NS_9allocatorIS2_EEEENS_7greaterIS2_EEED1Ev, symObjAddr: 0x15B8, symBinAddr: 0x100003CB0, symSize: 0x58 }
  - { offsetInCU: 0x102F9, offset: 0x102F9, size: 0x8, addend: 0x0, symName: __ZNSt3__16vectorINS_4pairIxxEENS_9allocatorIS2_EEE9push_backB7v160006EOS2_, symObjAddr: 0x4C90, symBinAddr: 0x100007388, symSize: 0xB0 }
  - { offsetInCU: 0x10396, offset: 0x10396, size: 0x8, addend: 0x0, symName: __ZNSt3__16vectorINS_4pairIxxEENS_9allocatorIS2_EEE17__destruct_at_endB7v160006EPS2_, symObjAddr: 0x902C, symBinAddr: 0x10000B724, symSize: 0x78 }
  - { offsetInCU: 0x10444, offset: 0x10444, size: 0x8, addend: 0x0, symName: __Z9dijkstra2x, symObjAddr: 0x1610, symBinAddr: 0x100003D08, symSize: 0xCC0 }
  - { offsetInCU: 0x10870, offset: 0x10870, size: 0x8, addend: 0x0, symName: __Z8get_pathx, symObjAddr: 0x22D0, symBinAddr: 0x1000049C8, symSize: 0x324 }
  - { offsetInCU: 0x10991, offset: 0x10991, size: 0x8, addend: 0x0, symName: __ZNSt3__117__compressed_pairIPxNS_9allocatorIxEEEC2B7v160006IDnNS_18__default_init_tagEEEOT_OT0_, symObjAddr: 0x90A4, symBinAddr: 0x10000B79C, symSize: 0xB0 }
  - { offsetInCU: 0x10A10, offset: 0x10A10, size: 0x8, addend: 0x0, symName: __ZNSt3__16vectorIxNS_9allocatorIxEEE9push_backB7v160006ERKx, symObjAddr: 0x25F4, symBinAddr: 0x100004CEC, symSize: 0xB0 }
  - { offsetInCU: 0x10A79, offset: 0x10A79, size: 0x8, addend: 0x0, symName: __ZNSt3__16vectorIxNS_9allocatorIxEEED1B7v160006Ev, symObjAddr: 0x26A8, symBinAddr: 0x100004DA0, symSize: 0x1B0 }
  - { offsetInCU: 0x10AE4, offset: 0x10AE4, size: 0x8, addend: 0x0, symName: __ZNSt3__16vectorIxNS_9allocatorIxEEE9__end_capB7v160006Ev, symObjAddr: 0x9B00, symBinAddr: 0x10000C1F8, symSize: 0x70 }
  - { offsetInCU: 0x10B14, offset: 0x10B14, size: 0x8, addend: 0x0, symName: __ZNSt3__16vectorIxNS_9allocatorIxEEE22__construct_one_at_endB7v160006IJRKxEEEvDpOT_, symObjAddr: 0x9B70, symBinAddr: 0x10000C268, symSize: 0x2F4 }
  - { offsetInCU: 0x10C67, offset: 0x10C67, size: 0x8, addend: 0x0, symName: __ZNSt3__16vectorIxNS_9allocatorIxEEE21__push_back_slow_pathIRKxEEvOT_, symObjAddr: 0x9E64, symBinAddr: 0x10000C55C, symSize: 0x320 }
  - { offsetInCU: 0x10E75, offset: 0x10E75, size: 0x8, addend: 0x0, symName: __ZNSt3__16vectorIxNS_9allocatorIxEEE16__destroy_vectorclB7v160006Ev, symObjAddr: 0x91D0, symBinAddr: 0x10000B8C8, symSize: 0x240 }
  - { offsetInCU: 0x11097, offset: 0x11097, size: 0x8, addend: 0x0, symName: _main, symObjAddr: 0x2858, symBinAddr: 0x100004F50, symSize: 0xAA0 }
  - { offsetInCU: 0x1119E, offset: 0x1119E, size: 0x8, addend: 0x0, symName: __ZNSt3__16vectorI4edgeNS_9allocatorIS1_EEE9push_backB7v160006EOS1_, symObjAddr: 0x32F8, symBinAddr: 0x1000059F0, symSize: 0xB0 }
  - { offsetInCU: 0x11207, offset: 0x11207, size: 0x8, addend: 0x0, symName: __ZNSt3__16vectorI4edgeNS_9allocatorIS1_EEE9__end_capB7v160006Ev, symObjAddr: 0xC868, symBinAddr: 0x10000EF60, symSize: 0x70 }
  - { offsetInCU: 0x1123D, offset: 0x1123D, size: 0x8, addend: 0x0, symName: __ZNSt3__16vectorI4edgeNS_9allocatorIS1_EEE22__construct_one_at_endB7v160006IJS1_EEEvDpOT_, symObjAddr: 0xC8D8, symBinAddr: 0x10000EFD0, symSize: 0x2C0 }
  - { offsetInCU: 0x11390, offset: 0x11390, size: 0x8, addend: 0x0, symName: __ZNSt3__16vectorI4edgeNS_9allocatorIS1_EEE21__push_back_slow_pathIS1_EEvOT_, symObjAddr: 0xCB98, symBinAddr: 0x10000F290, symSize: 0x2EC }
  - { offsetInCU: 0x11532, offset: 0x11532, size: 0x8, addend: 0x0, symName: __ZNKSt3__19basic_iosIcNS_11char_traitsIcEEE5widenB7v160006Ec, symObjAddr: 0xF0C4, symBinAddr: 0x1000117BC, symSize: 0x340 }
  - { offsetInCU: 0x11638, offset: 0x11638, size: 0x8, addend: 0x0, symName: __ZNSt3__16vectorINS_4pairIxxEENS_9allocatorIS2_EEE16__destroy_vectorclB7v160006Ev, symObjAddr: 0x37D8, symBinAddr: 0x100005ED0, symSize: 0x240 }
  - { offsetInCU: 0x117E1, offset: 0x117E1, size: 0x8, addend: 0x0, symName: __ZNKSt3__16vectorINS_4pairIxxEENS_9allocatorIS2_EEE17__annotate_deleteB7v160006Ev, symObjAddr: 0x3A18, symBinAddr: 0x100006110, symSize: 0x270 }
  - { offsetInCU: 0x118DB, offset: 0x118DB, size: 0x8, addend: 0x0, symName: __ZNSt3__16vectorINS_4pairIxxEENS_9allocatorIS2_EEE22__base_destruct_at_endB7v160006EPS2_, symObjAddr: 0x3E10, symBinAddr: 0x100006508, symSize: 0xE8 }
  - { offsetInCU: 0x11937, offset: 0x11937, size: 0x8, addend: 0x0, symName: __ZNSt3__16vectorINS_4pairIxxEENS_9allocatorIS2_EEE7__allocB7v160006Ev, symObjAddr: 0x3C88, symBinAddr: 0x100006380, symSize: 0x70 }
  - { offsetInCU: 0x11967, offset: 0x11967, size: 0x8, addend: 0x0, symName: __ZNKSt3__16vectorINS_4pairIxxEENS_9allocatorIS2_EEE8capacityB7v160006Ev, symObjAddr: 0x3CF8, symBinAddr: 0x1000063F0, symSize: 0x8C }
  - { offsetInCU: 0x119FE, offset: 0x119FE, size: 0x8, addend: 0x0, symName: __ZNKSt3__16vectorINS_4pairIxxEENS_9allocatorIS2_EEE4sizeB7v160006Ev, symObjAddr: 0x3D84, symBinAddr: 0x10000647C, symSize: 0x8C }
  - { offsetInCU: 0x11A25, offset: 0x11A25, size: 0x8, addend: 0x0, symName: __ZNSt3__117__compressed_pairIPNS_4pairIxxEENS_9allocatorIS2_EEE6secondB7v160006Ev, symObjAddr: 0x3EF8, symBinAddr: 0x1000065F0, symSize: 0xD4 }
  - { offsetInCU: 0x11A68, offset: 0x11A68, size: 0x8, addend: 0x0, symName: __ZNKSt3__16vectorINS_4pairIxxEENS_9allocatorIS2_EEE9__end_capB7v160006Ev, symObjAddr: 0x3FCC, symBinAddr: 0x1000066C4, symSize: 0x70 }
  - { offsetInCU: 0x11AB3, offset: 0x11AB3, size: 0x8, addend: 0x0, symName: __ZNKSt3__117__compressed_pairIPNS_4pairIxxEENS_9allocatorIS2_EEE5firstB7v160006Ev, symObjAddr: 0x403C, symBinAddr: 0x100006734, symSize: 0xCC }
  - { offsetInCU: 0x11B42, offset: 0x11B42, size: 0x8, addend: 0x0, symName: __ZNSt3__117__compressed_pairIP4edgeNS_9allocatorIS1_EEEC2B7v160006IDnNS_18__default_init_tagEEEOT_OT0_, symObjAddr: 0x4108, symBinAddr: 0x100006800, symSize: 0xB0 }
  - { offsetInCU: 0x11BC1, offset: 0x11BC1, size: 0x8, addend: 0x0, symName: __ZNSt3__122__compressed_pair_elemINS_9allocatorI4edgeEELi1ELb1EEC2B7v160006ENS_18__default_init_tagE, symObjAddr: 0x41B8, symBinAddr: 0x1000068B0, symSize: 0x7C }
  - { offsetInCU: 0x11CDD, offset: 0x11CDD, size: 0x8, addend: 0x0, symName: __ZNKSt3__16vectorI4edgeNS_9allocatorIS1_EEE17__annotate_deleteB7v160006Ev, symObjAddr: 0x4474, symBinAddr: 0x100006B6C, symSize: 0x270 }
  - { offsetInCU: 0x11DD7, offset: 0x11DD7, size: 0x8, addend: 0x0, symName: __ZNSt3__16vectorI4edgeNS_9allocatorIS1_EEE22__base_destruct_at_endB7v160006EPS1_, symObjAddr: 0x486C, symBinAddr: 0x100006F64, symSize: 0xE8 }
  - { offsetInCU: 0x11E33, offset: 0x11E33, size: 0x8, addend: 0x0, symName: __ZNSt3__16vectorI4edgeNS_9allocatorIS1_EEE7__allocB7v160006Ev, symObjAddr: 0x46E4, symBinAddr: 0x100006DDC, symSize: 0x70 }
  - { offsetInCU: 0x11E63, offset: 0x11E63, size: 0x8, addend: 0x0, symName: __ZNKSt3__16vectorI4edgeNS_9allocatorIS1_EEE8capacityB7v160006Ev, symObjAddr: 0x4754, symBinAddr: 0x100006E4C, symSize: 0x8C }
  - { offsetInCU: 0x11F00, offset: 0x11F00, size: 0x8, addend: 0x0, symName: __ZNKSt3__16vectorI4edgeNS_9allocatorIS1_EEE4sizeB7v160006Ev, symObjAddr: 0x47E0, symBinAddr: 0x100006ED8, symSize: 0x8C }
  - { offsetInCU: 0x11F27, offset: 0x11F27, size: 0x8, addend: 0x0, symName: __ZNSt3__117__compressed_pairIP4edgeNS_9allocatorIS1_EEE6secondB7v160006Ev, symObjAddr: 0x4954, symBinAddr: 0x10000704C, symSize: 0xD4 }
  - { offsetInCU: 0x11F6A, offset: 0x11F6A, size: 0x8, addend: 0x0, symName: __ZNKSt3__16vectorI4edgeNS_9allocatorIS1_EEE9__end_capB7v160006Ev, symObjAddr: 0x4A28, symBinAddr: 0x100007120, symSize: 0x70 }
  - { offsetInCU: 0x11FB5, offset: 0x11FB5, size: 0x8, addend: 0x0, symName: __ZNKSt3__117__compressed_pairIP4edgeNS_9allocatorIS1_EEE5firstB7v160006Ev, symObjAddr: 0x4A98, symBinAddr: 0x100007190, symSize: 0xCC }
  - { offsetInCU: 0x12044, offset: 0x12044, size: 0x8, addend: 0x0, symName: __ZNSt3__122__compressed_pair_elemINS_9allocatorINS_4pairIxxEEEELi1ELb1EEC2B7v160006ENS_18__default_init_tagE, symObjAddr: 0x4C14, symBinAddr: 0x10000730C, symSize: 0x7C }
  - { offsetInCU: 0x120EC, offset: 0x120EC, size: 0x8, addend: 0x0, symName: __ZNSt3__16vectorINS_4pairIxxEENS_9allocatorIS2_EEE9__end_capB7v160006Ev, symObjAddr: 0x4D40, symBinAddr: 0x100007438, symSize: 0x70 }
  - { offsetInCU: 0x1211C, offset: 0x1211C, size: 0x8, addend: 0x0, symName: __ZNSt3__16vectorINS_4pairIxxEENS_9allocatorIS2_EEE22__construct_one_at_endB7v160006IJS2_EEEvDpOT_, symObjAddr: 0x4DB0, symBinAddr: 0x1000074A8, symSize: 0x2C0 }
  - { offsetInCU: 0x1226F, offset: 0x1226F, size: 0x8, addend: 0x0, symName: __ZNSt3__16vectorINS_4pairIxxEENS_9allocatorIS2_EEE21__push_back_slow_pathIS2_EEvOT_, symObjAddr: 0x5070, symBinAddr: 0x100007768, symSize: 0x2EC }
  - { offsetInCU: 0x12411, offset: 0x12411, size: 0x8, addend: 0x0, symName: __ZNSt3__117__compressed_pairIPNS_4pairIxxEENS_9allocatorIS2_EEE5firstB7v160006Ev, symObjAddr: 0x535C, symBinAddr: 0x100007A54, symSize: 0xCC }
  - { offsetInCU: 0x1255C, offset: 0x1255C, size: 0x8, addend: 0x0, symName: __ZNSt3__16vectorINS_4pairIxxEENS_9allocatorIS2_EEE21_ConstructTransactionC2B7v160006ERS5_m, symObjAddr: 0x5428, symBinAddr: 0x100007B20, symSize: 0x194 }
  - { offsetInCU: 0x125B4, offset: 0x125B4, size: 0x8, addend: 0x0, symName: __ZNSt3__16vectorINS_4pairIxxEENS_9allocatorIS2_EEE21_ConstructTransactionD2B7v160006Ev, symObjAddr: 0x5894, symBinAddr: 0x100007F8C, symSize: 0x214 }
  - { offsetInCU: 0x1264B, offset: 0x1264B, size: 0x8, addend: 0x0, symName: __ZNKSt3__16vectorINS_4pairIxxEENS_9allocatorIS2_EEE11__recommendB7v160006Em, symObjAddr: 0x5D04, symBinAddr: 0x1000083FC, symSize: 0x9C }
  - { offsetInCU: 0x126F9, offset: 0x126F9, size: 0x8, addend: 0x0, symName: __ZNSt3__114__split_bufferINS_4pairIxxEERNS_9allocatorIS2_EEEC2EmmS5_, symObjAddr: 0x637C, symBinAddr: 0x100008A74, symSize: 0x35C }
  - { offsetInCU: 0x12801, offset: 0x12801, size: 0x8, addend: 0x0, symName: __ZNSt3__114__split_bufferINS_4pairIxxEERNS_9allocatorIS2_EEED2Ev, symObjAddr: 0x7B38, symBinAddr: 0x10000A230, symSize: 0xF4 }
  - { offsetInCU: 0x12911, offset: 0x12911, size: 0x8, addend: 0x0, symName: __ZNSt3__114__split_bufferINS_4pairIxxEERNS_9allocatorIS2_EEED1Ev, symObjAddr: 0x6088, symBinAddr: 0x100008780, symSize: 0x48 }
  - { offsetInCU: 0x12957, offset: 0x12957, size: 0x8, addend: 0x0, symName: __ZNKSt3__16vectorINS_4pairIxxEENS_9allocatorIS2_EEE19__annotate_increaseB7v160006Em, symObjAddr: 0x55BC, symBinAddr: 0x100007CB4, symSize: 0x2D8 }
  - { offsetInCU: 0x12A61, offset: 0x12A61, size: 0x8, addend: 0x0, symName: __ZNKSt3__16vectorINS_4pairIxxEENS_9allocatorIS2_EEE17__annotate_shrinkB7v160006Em, symObjAddr: 0x5AA8, symBinAddr: 0x1000081A0, symSize: 0x25C }
  - { offsetInCU: 0x12B6F, offset: 0x12B6F, size: 0x8, addend: 0x0, symName: __ZNKSt3__16vectorINS_4pairIxxEENS_9allocatorIS2_EEE7__allocB7v160006Ev, symObjAddr: 0x6114, symBinAddr: 0x10000880C, symSize: 0x70 }
  - { offsetInCU: 0x12BA4, offset: 0x12BA4, size: 0x8, addend: 0x0, symName: __ZNKSt3__16vectorINS_4pairIxxEENS_9allocatorIS2_EEE20__throw_length_errorB7v160006Ev, symObjAddr: 0x60D0, symBinAddr: 0x1000087C8, symSize: 0x44 }
  - { offsetInCU: 0x12C04, offset: 0x12C04, size: 0x8, addend: 0x0, symName: __ZNSt3__117__compressed_pairIPNS_4pairIxxEERNS_9allocatorIS2_EEE5firstB7v160006Ev, symObjAddr: 0x69E4, symBinAddr: 0x1000090DC, symSize: 0xCC }
  - { offsetInCU: 0x12C48, offset: 0x12C48, size: 0x8, addend: 0x0, symName: __ZNKSt3__16vectorINS_4pairIxxEENS_9allocatorIS2_EEE14__annotate_newB7v160006Em, symObjAddr: 0x6ED4, symBinAddr: 0x1000095CC, symSize: 0x280 }
  - { offsetInCU: 0x12D3E, offset: 0x12D3E, size: 0x8, addend: 0x0, symName: __ZNKSt3__117__compressed_pairIPNS_4pairIxxEENS_9allocatorIS2_EEE6secondB7v160006Ev, symObjAddr: 0x6184, symBinAddr: 0x10000887C, symSize: 0xD4 }
  - { offsetInCU: 0x12D9D, offset: 0x12D9D, size: 0x8, addend: 0x0, symName: __ZNSt12length_errorC1B7v160006EPKc, symObjAddr: 0x62D0, symBinAddr: 0x1000089C8, symSize: 0xAC }
  - { offsetInCU: 0x12E63, offset: 0x12E63, size: 0x8, addend: 0x0, symName: __ZNSt3__117__compressed_pairIPNS_4pairIxxEERNS_9allocatorIS2_EEEC2B7v160006IDnS6_EEOT_OT0_, symObjAddr: 0x678C, symBinAddr: 0x100008E84, symSize: 0xFC }
  - { offsetInCU: 0x12EF3, offset: 0x12EF3, size: 0x8, addend: 0x0, symName: __ZNSt3__114__split_bufferINS_4pairIxxEERNS_9allocatorIS2_EEE7__allocB7v160006Ev, symObjAddr: 0x671C, symBinAddr: 0x100008E14, symSize: 0x70 }
  - { offsetInCU: 0x12F44, offset: 0x12F44, size: 0x8, addend: 0x0, symName: __ZNSt3__117__compressed_pairIPNS_4pairIxxEERNS_9allocatorIS2_EEE6secondB7v160006Ev, symObjAddr: 0x68E4, symBinAddr: 0x100008FDC, symSize: 0x100 }
  - { offsetInCU: 0x130AD, offset: 0x130AD, size: 0x8, addend: 0x0, symName: __ZNKSt3__116reverse_iteratorIPNS_4pairIxxEEEdeB7v160006Ev, symObjAddr: 0x7154, symBinAddr: 0x10000984C, symSize: 0xC0 }
  - { offsetInCU: 0x130E3, offset: 0x130E3, size: 0x8, addend: 0x0, symName: __ZNSt3__128__exception_guard_exceptionsINS_29_AllocatorDestroyRangeReverseINS_9allocatorINS_4pairIxxEEEENS_16reverse_iteratorIPS4_EEEEED2B7v160006Ev, symObjAddr: 0x7214, symBinAddr: 0x10000990C, symSize: 0xF4 }
  - { offsetInCU: 0x13122, offset: 0x13122, size: 0x8, addend: 0x0, symName: __ZNKSt3__129_AllocatorDestroyRangeReverseINS_9allocatorINS_4pairIxxEEEENS_16reverse_iteratorIPS3_EEEclB7v160006Ev, symObjAddr: 0x7308, symBinAddr: 0x100009A00, symSize: 0x334 }
  - { offsetInCU: 0x1324B, offset: 0x1324B, size: 0x8, addend: 0x0, symName: __ZNKSt3__116reverse_iteratorINS0_IPNS_4pairIxxEEEEEdeB7v160006Ev, symObjAddr: 0x7948, symBinAddr: 0x10000A040, symSize: 0x1F0 }
  - { offsetInCU: 0x132AD, offset: 0x132AD, size: 0x8, addend: 0x0, symName: __ZNSt3__116reverse_iteratorINS0_IPNS_4pairIxxEEEEEppB7v160006Ev, symObjAddr: 0x77A8, symBinAddr: 0x100009EA0, symSize: 0x1A0 }
  - { offsetInCU: 0x13316, offset: 0x13316, size: 0x8, addend: 0x0, symName: __ZNSt3__114__split_bufferINS_4pairIxxEERNS_9allocatorIS2_EEE5clearB7v160006Ev, symObjAddr: 0x7C2C, symBinAddr: 0x10000A324, symSize: 0xAC }
  - { offsetInCU: 0x1336A, offset: 0x1336A, size: 0x8, addend: 0x0, symName: __ZNKSt3__114__split_bufferINS_4pairIxxEERNS_9allocatorIS2_EEE8capacityB7v160006Ev, symObjAddr: 0x7CD8, symBinAddr: 0x10000A3D0, symSize: 0x8C }
  - { offsetInCU: 0x133C6, offset: 0x133C6, size: 0x8, addend: 0x0, symName: __ZNSt3__114__split_bufferINS_4pairIxxEERNS_9allocatorIS2_EEE17__destruct_at_endB7v160006EPS2_NS_17integral_constantIbLb0EEE, symObjAddr: 0x7D64, symBinAddr: 0x10000A45C, symSize: 0x100 }
  - { offsetInCU: 0x13419, offset: 0x13419, size: 0x8, addend: 0x0, symName: __ZNKSt3__114__split_bufferINS_4pairIxxEERNS_9allocatorIS2_EEE9__end_capB7v160006Ev, symObjAddr: 0x7E64, symBinAddr: 0x10000A55C, symSize: 0x70 }
  - { offsetInCU: 0x1344E, offset: 0x1344E, size: 0x8, addend: 0x0, symName: __ZNKSt3__117__compressed_pairIPNS_4pairIxxEERNS_9allocatorIS2_EEE5firstB7v160006Ev, symObjAddr: 0x7ED4, symBinAddr: 0x10000A5CC, symSize: 0xCC }
  - { offsetInCU: 0x1355C, offset: 0x1355C, size: 0x8, addend: 0x0, symName: __ZNSt3__111__wrap_iterIPNS_4pairIxxEEEpLB7v160006El, symObjAddr: 0x8464, symBinAddr: 0x10000AB5C, symSize: 0x13C }
  - { offsetInCU: 0x13592, offset: 0x13592, size: 0x8, addend: 0x0, symName: __ZNSt3__14pairIxxEaSB7v160006EOS1_, symObjAddr: 0x836C, symBinAddr: 0x10000AA64, symSize: 0xF8 }
  - { offsetInCU: 0x13632, offset: 0x13632, size: 0x8, addend: 0x0, symName: __ZNSt3__122__compressed_pair_elemINS_9allocatorIxEELi1ELb1EEC2B7v160006ENS_18__default_init_tagE, symObjAddr: 0x9154, symBinAddr: 0x10000B84C, symSize: 0x7C }
  - { offsetInCU: 0x1374E, offset: 0x1374E, size: 0x8, addend: 0x0, symName: __ZNKSt3__16vectorIxNS_9allocatorIxEEE17__annotate_deleteB7v160006Ev, symObjAddr: 0x9410, symBinAddr: 0x10000BB08, symSize: 0x270 }
  - { offsetInCU: 0x13848, offset: 0x13848, size: 0x8, addend: 0x0, symName: __ZNSt3__16vectorIxNS_9allocatorIxEEE22__base_destruct_at_endB7v160006EPx, symObjAddr: 0x9808, symBinAddr: 0x10000BF00, symSize: 0xE8 }
  - { offsetInCU: 0x138A4, offset: 0x138A4, size: 0x8, addend: 0x0, symName: __ZNSt3__16vectorIxNS_9allocatorIxEEE7__allocB7v160006Ev, symObjAddr: 0x9680, symBinAddr: 0x10000BD78, symSize: 0x70 }
  - { offsetInCU: 0x138D4, offset: 0x138D4, size: 0x8, addend: 0x0, symName: __ZNKSt3__16vectorIxNS_9allocatorIxEEE8capacityB7v160006Ev, symObjAddr: 0x96F0, symBinAddr: 0x10000BDE8, symSize: 0x8C }
  - { offsetInCU: 0x13971, offset: 0x13971, size: 0x8, addend: 0x0, symName: __ZNKSt3__16vectorIxNS_9allocatorIxEEE4sizeB7v160006Ev, symObjAddr: 0x977C, symBinAddr: 0x10000BE74, symSize: 0x8C }
  - { offsetInCU: 0x13998, offset: 0x13998, size: 0x8, addend: 0x0, symName: __ZNSt3__117__compressed_pairIPxNS_9allocatorIxEEE6secondB7v160006Ev, symObjAddr: 0x98F0, symBinAddr: 0x10000BFE8, symSize: 0xD4 }
  - { offsetInCU: 0x139DB, offset: 0x139DB, size: 0x8, addend: 0x0, symName: __ZNKSt3__16vectorIxNS_9allocatorIxEEE9__end_capB7v160006Ev, symObjAddr: 0x99C4, symBinAddr: 0x10000C0BC, symSize: 0x70 }
  - { offsetInCU: 0x13A26, offset: 0x13A26, size: 0x8, addend: 0x0, symName: __ZNKSt3__117__compressed_pairIPxNS_9allocatorIxEEE5firstB7v160006Ev, symObjAddr: 0x9A34, symBinAddr: 0x10000C12C, symSize: 0xCC }
  - { offsetInCU: 0x13A86, offset: 0x13A86, size: 0x8, addend: 0x0, symName: __ZNSt3__117__compressed_pairIPxNS_9allocatorIxEEE5firstB7v160006Ev, symObjAddr: 0xA184, symBinAddr: 0x10000C87C, symSize: 0xCC }
  - { offsetInCU: 0x13BD1, offset: 0x13BD1, size: 0x8, addend: 0x0, symName: __ZNSt3__16vectorIxNS_9allocatorIxEEE21_ConstructTransactionC2B7v160006ERS3_m, symObjAddr: 0xA250, symBinAddr: 0x10000C948, symSize: 0x194 }
  - { offsetInCU: 0x13C29, offset: 0x13C29, size: 0x8, addend: 0x0, symName: __ZNSt3__16vectorIxNS_9allocatorIxEEE21_ConstructTransactionD2B7v160006Ev, symObjAddr: 0xA6BC, symBinAddr: 0x10000CDB4, symSize: 0x214 }
  - { offsetInCU: 0x13CC0, offset: 0x13CC0, size: 0x8, addend: 0x0, symName: __ZNKSt3__16vectorIxNS_9allocatorIxEEE11__recommendB7v160006Em, symObjAddr: 0xAB2C, symBinAddr: 0x10000D224, symSize: 0x9C }
  - { offsetInCU: 0x13D6E, offset: 0x13D6E, size: 0x8, addend: 0x0, symName: __ZNSt3__114__split_bufferIxRNS_9allocatorIxEEEC2EmmS3_, symObjAddr: 0xB1D8, symBinAddr: 0x10000D8D0, symSize: 0x35C }
  - { offsetInCU: 0x13E76, offset: 0x13E76, size: 0x8, addend: 0x0, symName: __ZNSt3__114__split_bufferIxRNS_9allocatorIxEEED2Ev, symObjAddr: 0xBF7C, symBinAddr: 0x10000E674, symSize: 0xF4 }
  - { offsetInCU: 0x13F86, offset: 0x13F86, size: 0x8, addend: 0x0, symName: __ZNSt3__114__split_bufferIxRNS_9allocatorIxEEED1Ev, symObjAddr: 0xB008, symBinAddr: 0x10000D700, symSize: 0x48 }
  - { offsetInCU: 0x13FCC, offset: 0x13FCC, size: 0x8, addend: 0x0, symName: __ZNKSt3__16vectorIxNS_9allocatorIxEEE19__annotate_increaseB7v160006Em, symObjAddr: 0xA3E4, symBinAddr: 0x10000CADC, symSize: 0x2D8 }
  - { offsetInCU: 0x140D6, offset: 0x140D6, size: 0x8, addend: 0x0, symName: __ZNKSt3__16vectorIxNS_9allocatorIxEEE17__annotate_shrinkB7v160006Em, symObjAddr: 0xA8D0, symBinAddr: 0x10000CFC8, symSize: 0x25C }
  - { offsetInCU: 0x141E4, offset: 0x141E4, size: 0x8, addend: 0x0, symName: __ZNKSt3__16vectorIxNS_9allocatorIxEEE7__allocB7v160006Ev, symObjAddr: 0xB094, symBinAddr: 0x10000D78C, symSize: 0x70 }
  - { offsetInCU: 0x14219, offset: 0x14219, size: 0x8, addend: 0x0, symName: __ZNKSt3__16vectorIxNS_9allocatorIxEEE20__throw_length_errorB7v160006Ev, symObjAddr: 0xB050, symBinAddr: 0x10000D748, symSize: 0x44 }
  - { offsetInCU: 0x142A3, offset: 0x142A3, size: 0x8, addend: 0x0, symName: __ZNKSt3__111__move_loopINS_17_ClassicAlgPolicyEEclB7v160006INS_16reverse_iteratorIPxEES6_S6_EENS_4pairIT_T1_EES8_T0_S9_, symObjAddr: 0xBB30, symBinAddr: 0x10000E228, symSize: 0x38C }
  - { offsetInCU: 0x14410, offset: 0x14410, size: 0x8, addend: 0x0, symName: __ZNSt3__117__compressed_pairIPxRNS_9allocatorIxEEE5firstB7v160006Ev, symObjAddr: 0xB7E4, symBinAddr: 0x10000DEDC, symSize: 0xCC }
  - { offsetInCU: 0x14454, offset: 0x14454, size: 0x8, addend: 0x0, symName: __ZNKSt3__16vectorIxNS_9allocatorIxEEE14__annotate_newB7v160006Em, symObjAddr: 0xB8B0, symBinAddr: 0x10000DFA8, symSize: 0x280 }
  - { offsetInCU: 0x1454A, offset: 0x1454A, size: 0x8, addend: 0x0, symName: __ZNKSt3__117__compressed_pairIPxNS_9allocatorIxEEE6secondB7v160006Ev, symObjAddr: 0xB104, symBinAddr: 0x10000D7FC, symSize: 0xD4 }
  - { offsetInCU: 0x145EB, offset: 0x145EB, size: 0x8, addend: 0x0, symName: __ZNSt3__117__compressed_pairIPxRNS_9allocatorIxEEEC2B7v160006IDnS4_EEOT_OT0_, symObjAddr: 0xB5E8, symBinAddr: 0x10000DCE0, symSize: 0xFC }
  - { offsetInCU: 0x1467B, offset: 0x1467B, size: 0x8, addend: 0x0, symName: __ZNSt3__114__split_bufferIxRNS_9allocatorIxEEE7__allocB7v160006Ev, symObjAddr: 0xB578, symBinAddr: 0x10000DC70, symSize: 0x70 }
  - { offsetInCU: 0x146CC, offset: 0x146CC, size: 0x8, addend: 0x0, symName: __ZNSt3__117__compressed_pairIPxRNS_9allocatorIxEEE6secondB7v160006Ev, symObjAddr: 0xB6E4, symBinAddr: 0x10000DDDC, symSize: 0x100 }
  - { offsetInCU: 0x1484A, offset: 0x1484A, size: 0x8, addend: 0x0, symName: __ZNKSt3__116reverse_iteratorIPxEdeB7v160006Ev, symObjAddr: 0xBEBC, symBinAddr: 0x10000E5B4, symSize: 0xC0 }
  - { offsetInCU: 0x14896, offset: 0x14896, size: 0x8, addend: 0x0, symName: __ZNSt3__114__split_bufferIxRNS_9allocatorIxEEE5clearB7v160006Ev, symObjAddr: 0xC070, symBinAddr: 0x10000E768, symSize: 0xAC }
  - { offsetInCU: 0x148EA, offset: 0x148EA, size: 0x8, addend: 0x0, symName: __ZNKSt3__114__split_bufferIxRNS_9allocatorIxEEE8capacityB7v160006Ev, symObjAddr: 0xC11C, symBinAddr: 0x10000E814, symSize: 0x8C }
  - { offsetInCU: 0x14946, offset: 0x14946, size: 0x8, addend: 0x0, symName: __ZNSt3__114__split_bufferIxRNS_9allocatorIxEEE17__destruct_at_endB7v160006EPxNS_17integral_constantIbLb0EEE, symObjAddr: 0xC1A8, symBinAddr: 0x10000E8A0, symSize: 0x100 }
  - { offsetInCU: 0x14999, offset: 0x14999, size: 0x8, addend: 0x0, symName: __ZNKSt3__114__split_bufferIxRNS_9allocatorIxEEE9__end_capB7v160006Ev, symObjAddr: 0xC2A8, symBinAddr: 0x10000E9A0, symSize: 0x70 }
  - { offsetInCU: 0x149CE, offset: 0x149CE, size: 0x8, addend: 0x0, symName: __ZNKSt3__117__compressed_pairIPxRNS_9allocatorIxEEE5firstB7v160006Ev, symObjAddr: 0xC318, symBinAddr: 0x10000EA10, symSize: 0xCC }
  - { offsetInCU: 0x14A4A, offset: 0x14A4A, size: 0x8, addend: 0x0, symName: __ZNSt3__18_IterOpsINS_17_ClassicAlgPolicyEE9iter_swapB7v160006IRNS_11__wrap_iterIPxEES7_EEvOT_OT0_, symObjAddr: 0xC6E4, symBinAddr: 0x10000EDDC, symSize: 0x12C }
  - { offsetInCU: 0x14B21, offset: 0x14B21, size: 0x8, addend: 0x0, symName: __ZNSt3__117__compressed_pairIP4edgeNS_9allocatorIS1_EEE5firstB7v160006Ev, symObjAddr: 0xCE84, symBinAddr: 0x10000F57C, symSize: 0xCC }
  - { offsetInCU: 0x14C6C, offset: 0x14C6C, size: 0x8, addend: 0x0, symName: __ZNSt3__16vectorI4edgeNS_9allocatorIS1_EEE21_ConstructTransactionC2B7v160006ERS4_m, symObjAddr: 0xCF50, symBinAddr: 0x10000F648, symSize: 0x194 }
  - { offsetInCU: 0x14CC4, offset: 0x14CC4, size: 0x8, addend: 0x0, symName: __ZNSt3__16vectorI4edgeNS_9allocatorIS1_EEE21_ConstructTransactionD2B7v160006Ev, symObjAddr: 0xD3BC, symBinAddr: 0x10000FAB4, symSize: 0x214 }
  - { offsetInCU: 0x14D5B, offset: 0x14D5B, size: 0x8, addend: 0x0, symName: __ZNKSt3__16vectorI4edgeNS_9allocatorIS1_EEE11__recommendB7v160006Em, symObjAddr: 0xD82C, symBinAddr: 0x10000FF24, symSize: 0x9C }
  - { offsetInCU: 0x14E09, offset: 0x14E09, size: 0x8, addend: 0x0, symName: __ZNSt3__114__split_bufferI4edgeRNS_9allocatorIS1_EEEC2EmmS4_, symObjAddr: 0xDED8, symBinAddr: 0x1000105D0, symSize: 0x35C }
  - { offsetInCU: 0x14F11, offset: 0x14F11, size: 0x8, addend: 0x0, symName: __ZNSt3__114__split_bufferI4edgeRNS_9allocatorIS1_EEED2Ev, symObjAddr: 0xEC5C, symBinAddr: 0x100011354, symSize: 0xF4 }
  - { offsetInCU: 0x15021, offset: 0x15021, size: 0x8, addend: 0x0, symName: __ZNSt3__114__split_bufferI4edgeRNS_9allocatorIS1_EEED1Ev, symObjAddr: 0xDD08, symBinAddr: 0x100010400, symSize: 0x48 }
  - { offsetInCU: 0x15067, offset: 0x15067, size: 0x8, addend: 0x0, symName: __ZNKSt3__16vectorI4edgeNS_9allocatorIS1_EEE19__annotate_increaseB7v160006Em, symObjAddr: 0xD0E4, symBinAddr: 0x10000F7DC, symSize: 0x2D8 }
  - { offsetInCU: 0x15171, offset: 0x15171, size: 0x8, addend: 0x0, symName: __ZNKSt3__16vectorI4edgeNS_9allocatorIS1_EEE17__annotate_shrinkB7v160006Em, symObjAddr: 0xD5D0, symBinAddr: 0x10000FCC8, symSize: 0x25C }
  - { offsetInCU: 0x1527F, offset: 0x1527F, size: 0x8, addend: 0x0, symName: __ZNKSt3__16vectorI4edgeNS_9allocatorIS1_EEE7__allocB7v160006Ev, symObjAddr: 0xDD94, symBinAddr: 0x10001048C, symSize: 0x70 }
  - { offsetInCU: 0x152B4, offset: 0x152B4, size: 0x8, addend: 0x0, symName: __ZNKSt3__16vectorI4edgeNS_9allocatorIS1_EEE20__throw_length_errorB7v160006Ev, symObjAddr: 0xDD50, symBinAddr: 0x100010448, symSize: 0x44 }
  - { offsetInCU: 0x15332, offset: 0x15332, size: 0x8, addend: 0x0, symName: __ZNKSt3__111__move_loopINS_17_ClassicAlgPolicyEEclB7v160006INS_16reverse_iteratorIP4edgeEES7_S7_EENS_4pairIT_T1_EES9_T0_SA_, symObjAddr: 0xE830, symBinAddr: 0x100010F28, symSize: 0x36C }
  - { offsetInCU: 0x1549F, offset: 0x1549F, size: 0x8, addend: 0x0, symName: __ZNSt3__117__compressed_pairIP4edgeRNS_9allocatorIS1_EEE5firstB7v160006Ev, symObjAddr: 0xE4E4, symBinAddr: 0x100010BDC, symSize: 0xCC }
  - { offsetInCU: 0x154E3, offset: 0x154E3, size: 0x8, addend: 0x0, symName: __ZNKSt3__16vectorI4edgeNS_9allocatorIS1_EEE14__annotate_newB7v160006Em, symObjAddr: 0xE5B0, symBinAddr: 0x100010CA8, symSize: 0x280 }
  - { offsetInCU: 0x155D9, offset: 0x155D9, size: 0x8, addend: 0x0, symName: __ZNKSt3__117__compressed_pairIP4edgeNS_9allocatorIS1_EEE6secondB7v160006Ev, symObjAddr: 0xDE04, symBinAddr: 0x1000104FC, symSize: 0xD4 }
  - { offsetInCU: 0x1567A, offset: 0x1567A, size: 0x8, addend: 0x0, symName: __ZNSt3__117__compressed_pairIP4edgeRNS_9allocatorIS1_EEEC2B7v160006IDnS5_EEOT_OT0_, symObjAddr: 0xE2E8, symBinAddr: 0x1000109E0, symSize: 0xFC }
  - { offsetInCU: 0x1570A, offset: 0x1570A, size: 0x8, addend: 0x0, symName: __ZNSt3__114__split_bufferI4edgeRNS_9allocatorIS1_EEE7__allocB7v160006Ev, symObjAddr: 0xE278, symBinAddr: 0x100010970, symSize: 0x70 }
  - { offsetInCU: 0x1575B, offset: 0x1575B, size: 0x8, addend: 0x0, symName: __ZNSt3__117__compressed_pairIP4edgeRNS_9allocatorIS1_EEE6secondB7v160006Ev, symObjAddr: 0xE3E4, symBinAddr: 0x100010ADC, symSize: 0x100 }
  - { offsetInCU: 0x158D3, offset: 0x158D3, size: 0x8, addend: 0x0, symName: __ZNKSt3__116reverse_iteratorIP4edgeEdeB7v160006Ev, symObjAddr: 0xEB9C, symBinAddr: 0x100011294, symSize: 0xC0 }
  - { offsetInCU: 0x1591F, offset: 0x1591F, size: 0x8, addend: 0x0, symName: __ZNSt3__114__split_bufferI4edgeRNS_9allocatorIS1_EEE5clearB7v160006Ev, symObjAddr: 0xED50, symBinAddr: 0x100011448, symSize: 0xAC }
  - { offsetInCU: 0x15973, offset: 0x15973, size: 0x8, addend: 0x0, symName: __ZNKSt3__114__split_bufferI4edgeRNS_9allocatorIS1_EEE8capacityB7v160006Ev, symObjAddr: 0xEDFC, symBinAddr: 0x1000114F4, symSize: 0x8C }
  - { offsetInCU: 0x159CF, offset: 0x159CF, size: 0x8, addend: 0x0, symName: __ZNSt3__114__split_bufferI4edgeRNS_9allocatorIS1_EEE17__destruct_at_endB7v160006EPS1_NS_17integral_constantIbLb0EEE, symObjAddr: 0xEE88, symBinAddr: 0x100011580, symSize: 0x100 }
  - { offsetInCU: 0x15A22, offset: 0x15A22, size: 0x8, addend: 0x0, symName: __ZNKSt3__114__split_bufferI4edgeRNS_9allocatorIS1_EEE9__end_capB7v160006Ev, symObjAddr: 0xEF88, symBinAddr: 0x100011680, symSize: 0x70 }
  - { offsetInCU: 0x15A57, offset: 0x15A57, size: 0x8, addend: 0x0, symName: __ZNKSt3__117__compressed_pairIP4edgeRNS_9allocatorIS1_EEE5firstB7v160006Ev, symObjAddr: 0xEFF8, symBinAddr: 0x1000116F0, symSize: 0xCC }
...
