---
triple:          'arm64-apple-darwin'
binary-path:     a.out
relocations:
  - { offsetInCU: 0x3F, offset: 0x3F, size: 0x8, addend: 0x0, symName: _dx, symObjAddr: 0x107C0, symBinAddr: 0x100018000, symSize: 0x0 }
  - { offsetInCU: 0x79, offset: 0x79, size: 0x8, addend: 0x0, symName: _dy, symObjAddr: 0x10820, symBinAddr: 0x100018060, symSize: 0x0 }
  - { offsetInCU: 0x8B, offset: 0x8B, size: 0x8, addend: 0x0, symName: _.str, symObjAddr: 0x147A0, symBinAddr: 0x1000120A0, symSize: 0x0 }
  - { offsetInCU: 0x5FBE, offset: 0x5FBE, size: 0x8, addend: 0x0, symName: '__ZNSt3__111__introsortINS_17_ClassicAlgPolicyERZ4mainE3$_0PNS_4pairIxxEEEEvT1_S7_T0_NS_15iterator_traitsIS7_E15difference_typeE', symObjAddr: 0xB278, symBinAddr: 0x10000BC8C, symSize: 0x2488 }
  - { offsetInCU: 0x671C, offset: 0x671C, size: 0x8, addend: 0x0, symName: '__ZNSt3__127__insertion_sort_incompleteIRZ4mainE3$_0PNS_4pairIxxEEEEbT0_S6_T_', symObjAddr: 0xDFD0, symBinAddr: 0x10000E9E4, symSize: 0x95C }
  - { offsetInCU: 0x82A7, offset: 0x82A7, size: 0x8, addend: 0x0, symName: __ZNSt3__14endlB7v160006IcNS_11char_traitsIcEEEERNS_13basic_ostreamIT_T0_EES7_, symObjAddr: 0x24FC, symBinAddr: 0x100002F10, symSize: 0x21C }
  - { offsetInCU: 0x868C, offset: 0x868C, size: 0x8, addend: 0x0, symName: __ZNSt3__120__throw_length_errorB7v160006EPKc, symObjAddr: 0x58AC, symBinAddr: 0x1000062C0, symSize: 0x78 }
  - { offsetInCU: 0x86CF, offset: 0x86CF, size: 0x8, addend: 0x0, symName: __ZNSt3__119__allocate_at_leastB7v160006INS_9allocatorIxEEEENS_19__allocation_resultINS_16allocator_traitsIT_E7pointerEEERS5_m, symObjAddr: 0x5D2C, symBinAddr: 0x100006740, symSize: 0x44 }
  - { offsetInCU: 0x8E0E, offset: 0x8E0E, size: 0x8, addend: 0x0, symName: __ZNSt3__19use_facetB7v160006INS_5ctypeIcEEEERKT_RKNS_6localeE, symObjAddr: 0x77AC, symBinAddr: 0x1000081C0, symSize: 0x100 }
  - { offsetInCU: 0x8E6C, offset: 0x8E6C, size: 0x8, addend: 0x0, symName: __ZNSt3__119__allocate_at_leastB7v160006INS_9allocatorINS_4pairIxxEEEEEENS_19__allocation_resultINS_16allocator_traitsIT_E7pointerEEERS7_m, symObjAddr: 0x8258, symBinAddr: 0x100008C6C, symSize: 0x44 }
  - { offsetInCU: 0x8F34, offset: 0x8F34, size: 0x8, addend: 0x0, symName: __ZNSt3__130__uninitialized_allocator_copyB7v160006INS_9allocatorIxEEPxS3_S3_EET2_RT_T0_T1_S4_, symObjAddr: 0xA9F4, symBinAddr: 0x10000B408, symSize: 0x480 }
  - { offsetInCU: 0x90A3, offset: 0x90A3, size: 0x8, addend: 0x0, symName: __ZNSt3__119__allocator_destroyB7v160006INS_9allocatorIxEENS_16reverse_iteratorIPxEES5_EEvRT_T0_T1_, symObjAddr: 0xB080, symBinAddr: 0x10000BA94, symSize: 0x1F8 }
  - { offsetInCU: 0x976D, offset: 0x976D, size: 0x8, addend: 0x0, symName: '__ZNSt3__119__sort5_wrap_policyB7v160006INS_17_ClassicAlgPolicyERZ4mainE3$_0PNS_4pairIxxEEEEjT1_S7_S7_S7_S7_T0_', symObjAddr: 0xD7AC, symBinAddr: 0x10000E1C0, symSize: 0x484 }
  - { offsetInCU: 0x98D0, offset: 0x98D0, size: 0x8, addend: 0x0, symName: '__ZNSt3__17__sort3B7v160006INS_17_ClassicAlgPolicyERZ4mainE3$_0PNS_4pairIxxEEEEjT1_S7_S7_T0_', symObjAddr: 0xDC30, symBinAddr: 0x10000E644, symSize: 0x3A0 }
  - { offsetInCU: 0x99D4, offset: 0x99D4, size: 0x8, addend: 0x0, symName: '__ZNSt3__17__sort4B7v160006INS_17_ClassicAlgPolicyERZ4mainE3$_0PNS_4pairIxxEEEEjT1_S7_S7_S7_T0_', symObjAddr: 0xEA90, symBinAddr: 0x10000F4A4, symSize: 0x3A4 }
  - { offsetInCU: 0x9FA2, offset: 0x9FA2, size: 0x8, addend: 0x0, symName: __ZSt28__throw_bad_array_new_lengthB7v160006v, symObjAddr: 0x5EDC, symBinAddr: 0x1000068F0, symSize: 0x5C }
  - { offsetInCU: 0xA4FA, offset: 0xA4FA, size: 0x8, addend: 0x0, symName: __ZNSt3__16vectorIxNS_9allocatorIxEEE26__swap_out_circular_bufferERNS_14__split_bufferIxRS2_EE, symObjAddr: 0x4610, symBinAddr: 0x100005024, symSize: 0x440 }
  - { offsetInCU: 0xCCCE, offset: 0xCCCE, size: 0x8, addend: 0x0, symName: _main, symObjAddr: 0x0, symBinAddr: 0x100000A14, symSize: 0x1998 }
  - { offsetInCU: 0xD6D0, offset: 0xD6D0, size: 0x8, addend: 0x0, symName: __ZNSt3__16vectorINS_4pairIxxEENS_9allocatorIS2_EEEC2Em, symObjAddr: 0x78AC, symBinAddr: 0x1000082C0, symSize: 0x338 }
  - { offsetInCU: 0xD82A, offset: 0xD82A, size: 0x8, addend: 0x0, symName: __ZNSt3__16vectorIxNS_9allocatorIxEEEC2Em, symObjAddr: 0x9A2C, symBinAddr: 0x10000A440, symSize: 0x338 }
  - { offsetInCU: 0xD984, offset: 0xD984, size: 0x8, addend: 0x0, symName: __ZNSt3__16vectorIxNS_9allocatorIxEEEC2ERKS3_, symObjAddr: 0xA340, symBinAddr: 0x10000AD54, symSize: 0x360 }
  - { offsetInCU: 0xDB37, offset: 0xDB37, size: 0x8, addend: 0x0, symName: __ZN11SegmentTreeC2ENSt3__16vectorIxNS0_9allocatorIxEEEE, symObjAddr: 0x2920, symBinAddr: 0x100003334, symSize: 0xF64 }
  - { offsetInCU: 0xDD0E, offset: 0xDD0E, size: 0x8, addend: 0x0, symName: __ZNSt3__16vectorIxNS_9allocatorIxEEED1B7v160006Ev, symObjAddr: 0x1998, symBinAddr: 0x1000023AC, symSize: 0x1B0 }
  - { offsetInCU: 0xDD79, offset: 0xDD79, size: 0x8, addend: 0x0, symName: __ZN11SegmentTree3addEix, symObjAddr: 0x1B48, symBinAddr: 0x10000255C, symSize: 0x6E8 }
  - { offsetInCU: 0xDE31, offset: 0xDE31, size: 0x8, addend: 0x0, symName: __ZN11SegmentTree6getSumEiiiii, symObjAddr: 0x2230, symBinAddr: 0x100002C44, symSize: 0x2CC }
  - { offsetInCU: 0xDF46, offset: 0xDF46, size: 0x8, addend: 0x0, symName: __ZNSt3__16vectorINS_4pairIxxEENS_9allocatorIS2_EEED1B7v160006Ev, symObjAddr: 0x2770, symBinAddr: 0x100003184, symSize: 0x1B0 }
  - { offsetInCU: 0xDFB1, offset: 0xDFB1, size: 0x8, addend: 0x0, symName: __ZN11SegmentTreeD1Ev, symObjAddr: 0x2718, symBinAddr: 0x10000312C, symSize: 0x58 }
  - { offsetInCU: 0xE069, offset: 0xE069, size: 0x8, addend: 0x0, symName: __ZNSt3__16vectorIxNS_9allocatorIxEEE16__destroy_vectorclB7v160006Ev, symObjAddr: 0x722C, symBinAddr: 0x100007C40, symSize: 0x240 }
  - { offsetInCU: 0xE19D, offset: 0xE19D, size: 0x8, addend: 0x0, symName: __ZNKSt3__19basic_iosIcNS_11char_traitsIcEEE5widenB7v160006Ec, symObjAddr: 0x746C, symBinAddr: 0x100007E80, symSize: 0x340 }
  - { offsetInCU: 0xE28D, offset: 0xE28D, size: 0x8, addend: 0x0, symName: __ZNSt3__16vectorINS_4pairIxxEENS_9allocatorIS2_EEE16__destroy_vectorclB7v160006Ev, symObjAddr: 0x9494, symBinAddr: 0x100009EA8, symSize: 0x240 }
  - { offsetInCU: 0xE443, offset: 0xE443, size: 0x8, addend: 0x0, symName: __ZNSt3__117__compressed_pairIPxNS_9allocatorIxEEEC2B7v160006IDnNS_18__default_init_tagEEEOT_OT0_, symObjAddr: 0x3A1C, symBinAddr: 0x100004430, symSize: 0xB0 }
  - { offsetInCU: 0xE4C2, offset: 0xE4C2, size: 0x8, addend: 0x0, symName: __ZNKSt3__16vectorIxNS_9allocatorIxEEE4sizeB7v160006Ev, symObjAddr: 0x3884, symBinAddr: 0x100004298, symSize: 0x8C }
  - { offsetInCU: 0xE4E9, offset: 0xE4E9, size: 0x8, addend: 0x0, symName: __ZNSt3__16vectorIxNS_9allocatorIxEEE6resizeEmRKx, symObjAddr: 0x3910, symBinAddr: 0x100004324, symSize: 0x100 }
  - { offsetInCU: 0xE58C, offset: 0xE58C, size: 0x8, addend: 0x0, symName: __ZNSt3__16vectorIxNS_9allocatorIxEEE8__appendEmRKx, symObjAddr: 0x3B48, symBinAddr: 0x10000455C, symSize: 0x298 }
  - { offsetInCU: 0xE754, offset: 0xE754, size: 0x8, addend: 0x0, symName: __ZNSt3__16vectorIxNS_9allocatorIxEEE17__destruct_at_endB7v160006EPx, symObjAddr: 0x3DE0, symBinAddr: 0x1000047F4, symSize: 0x78 }
  - { offsetInCU: 0xE836, offset: 0xE836, size: 0x8, addend: 0x0, symName: __ZNSt3__122__compressed_pair_elemINS_9allocatorIxEELi1ELb1EEC2B7v160006ENS_18__default_init_tagE, symObjAddr: 0x3ACC, symBinAddr: 0x1000044E0, symSize: 0x7C }
  - { offsetInCU: 0xE946, offset: 0xE946, size: 0x8, addend: 0x0, symName: __ZNSt3__16vectorIxNS_9allocatorIxEEE9__end_capB7v160006Ev, symObjAddr: 0x3E58, symBinAddr: 0x10000486C, symSize: 0x70 }
  - { offsetInCU: 0xE976, offset: 0xE976, size: 0x8, addend: 0x0, symName: __ZNSt3__16vectorIxNS_9allocatorIxEEE7__allocB7v160006Ev, symObjAddr: 0x41FC, symBinAddr: 0x100004C10, symSize: 0x70 }
  - { offsetInCU: 0xE9A6, offset: 0xE9A6, size: 0x8, addend: 0x0, symName: __ZNKSt3__16vectorIxNS_9allocatorIxEEE11__recommendB7v160006Em, symObjAddr: 0x426C, symBinAddr: 0x100004C80, symSize: 0x9C }
  - { offsetInCU: 0xEA52, offset: 0xEA52, size: 0x8, addend: 0x0, symName: __ZNSt3__114__split_bufferIxRNS_9allocatorIxEEEC2EmmS3_, symObjAddr: 0x59D0, symBinAddr: 0x1000063E4, symSize: 0x35C }
  - { offsetInCU: 0xEB59, offset: 0xEB59, size: 0x8, addend: 0x0, symName: __ZNSt3__114__split_bufferIxRNS_9allocatorIxEEE18__construct_at_endEmRKx, symObjAddr: 0x4308, symBinAddr: 0x100004D1C, symSize: 0x308 }
  - { offsetInCU: 0xEC7C, offset: 0xEC7C, size: 0x8, addend: 0x0, symName: __ZNSt3__114__split_bufferIxRNS_9allocatorIxEEED2Ev, symObjAddr: 0x6CDC, symBinAddr: 0x1000076F0, symSize: 0xF4 }
  - { offsetInCU: 0xED97, offset: 0xED97, size: 0x8, addend: 0x0, symName: __ZNSt3__16vectorIxNS_9allocatorIxEEE18__construct_at_endEmRKx, symObjAddr: 0x3EC8, symBinAddr: 0x1000048DC, symSize: 0x334 }
  - { offsetInCU: 0xEF01, offset: 0xEF01, size: 0x8, addend: 0x0, symName: __ZNSt3__114__split_bufferIxRNS_9allocatorIxEEED1Ev, symObjAddr: 0x4A50, symBinAddr: 0x100005464, symSize: 0x48 }
  - { offsetInCU: 0xEF55, offset: 0xEF55, size: 0x8, addend: 0x0, symName: __ZNSt3__16vectorIxNS_9allocatorIxEEE22__base_destruct_at_endB7v160006EPx, symObjAddr: 0x7144, symBinAddr: 0x100007B58, symSize: 0xE8 }
  - { offsetInCU: 0xEFB0, offset: 0xEFB0, size: 0x8, addend: 0x0, symName: __ZNKSt3__16vectorIxNS_9allocatorIxEEE17__annotate_shrinkB7v160006Em, symObjAddr: 0x53F4, symBinAddr: 0x100005E08, symSize: 0x25C }
  - { offsetInCU: 0xF0A6, offset: 0xF0A6, size: 0x8, addend: 0x0, symName: __ZNSt3__117__compressed_pairIPxNS_9allocatorIxEEE5firstB7v160006Ev, symObjAddr: 0x4A98, symBinAddr: 0x1000054AC, symSize: 0xCC }
  - { offsetInCU: 0xF1F1, offset: 0xF1F1, size: 0x8, addend: 0x0, symName: __ZNSt3__16vectorIxNS_9allocatorIxEEE21_ConstructTransactionC2B7v160006ERS3_m, symObjAddr: 0x4BAC, symBinAddr: 0x1000055C0, symSize: 0x194 }
  - { offsetInCU: 0xF24A, offset: 0xF24A, size: 0x8, addend: 0x0, symName: __ZNSt3__117__compressed_pairIPxNS_9allocatorIxEEE6secondB7v160006Ev, symObjAddr: 0x5650, symBinAddr: 0x100006064, symSize: 0xD4 }
  - { offsetInCU: 0xF28F, offset: 0xF28F, size: 0x8, addend: 0x0, symName: __ZNSt3__16vectorIxNS_9allocatorIxEEE21_ConstructTransactionD2B7v160006Ev, symObjAddr: 0x51E0, symBinAddr: 0x100005BF4, symSize: 0x214 }
  - { offsetInCU: 0xF2E6, offset: 0xF2E6, size: 0x8, addend: 0x0, symName: __ZNKSt3__16vectorIxNS_9allocatorIxEEE7__allocB7v160006Ev, symObjAddr: 0x5768, symBinAddr: 0x10000617C, symSize: 0x70 }
  - { offsetInCU: 0xF316, offset: 0xF316, size: 0x8, addend: 0x0, symName: __ZNKSt3__16vectorIxNS_9allocatorIxEEE8capacityB7v160006Ev, symObjAddr: 0x5018, symBinAddr: 0x100005A2C, symSize: 0x8C }
  - { offsetInCU: 0xF351, offset: 0xF351, size: 0x8, addend: 0x0, symName: __ZNKSt3__16vectorIxNS_9allocatorIxEEE20__throw_length_errorB7v160006Ev, symObjAddr: 0x5724, symBinAddr: 0x100006138, symSize: 0x44 }
  - { offsetInCU: 0xF3E2, offset: 0xF3E2, size: 0x8, addend: 0x0, symName: __ZNSt3__114__split_bufferIxRNS_9allocatorIxEEE21_ConstructTransactionC2B7v160006EPPxm, symObjAddr: 0x6104, symBinAddr: 0x100006B18, symSize: 0x1B4 }
  - { offsetInCU: 0xF42B, offset: 0xF42B, size: 0x8, addend: 0x0, symName: __ZNSt3__114__split_bufferIxRNS_9allocatorIxEEE7__allocB7v160006Ev, symObjAddr: 0x5D70, symBinAddr: 0x100006784, symSize: 0x70 }
  - { offsetInCU: 0xF45B, offset: 0xF45B, size: 0x8, addend: 0x0, symName: __ZNSt3__114__split_bufferIxRNS_9allocatorIxEEE21_ConstructTransactionD2B7v160006Ev, symObjAddr: 0x62B8, symBinAddr: 0x100006CCC, symSize: 0xE8 }
  - { offsetInCU: 0xF4CF, offset: 0xF4CF, size: 0x8, addend: 0x0, symName: __ZNKSt3__16vectorIxNS_9allocatorIxEEE17__annotate_deleteB7v160006Ev, symObjAddr: 0x63A0, symBinAddr: 0x100006DB4, symSize: 0x270 }
  - { offsetInCU: 0xF5D4, offset: 0xF5D4, size: 0x8, addend: 0x0, symName: __ZNKSt3__111__move_loopINS_17_ClassicAlgPolicyEEclB7v160006INS_16reverse_iteratorIPxEES6_S6_EENS_4pairIT_T1_EES8_T0_S9_, symObjAddr: 0x6890, symBinAddr: 0x1000072A4, symSize: 0x38C }
  - { offsetInCU: 0xF744, offset: 0xF744, size: 0x8, addend: 0x0, symName: __ZNSt3__117__compressed_pairIPxRNS_9allocatorIxEEE5firstB7v160006Ev, symObjAddr: 0x6038, symBinAddr: 0x100006A4C, symSize: 0xCC }
  - { offsetInCU: 0xF78A, offset: 0xF78A, size: 0x8, addend: 0x0, symName: __ZNKSt3__16vectorIxNS_9allocatorIxEEE14__annotate_newB7v160006Em, symObjAddr: 0x6610, symBinAddr: 0x100007024, symSize: 0x280 }
  - { offsetInCU: 0xF896, offset: 0xF896, size: 0x8, addend: 0x0, symName: __ZNSt3__16vectorIxNS_9allocatorIxEEE21_ConstructTransactionD1B7v160006Ev, symObjAddr: 0x4B64, symBinAddr: 0x100005578, symSize: 0x48 }
  - { offsetInCU: 0xF8C6, offset: 0xF8C6, size: 0x8, addend: 0x0, symName: __ZNKSt3__16vectorIxNS_9allocatorIxEEE19__annotate_increaseB7v160006Em, symObjAddr: 0x4D40, symBinAddr: 0x100005754, symSize: 0x2D8 }
  - { offsetInCU: 0xFA2C, offset: 0xFA2C, size: 0x8, addend: 0x0, symName: __ZNKSt3__16vectorIxNS_9allocatorIxEEE9__end_capB7v160006Ev, symObjAddr: 0x50A4, symBinAddr: 0x100005AB8, symSize: 0x70 }
  - { offsetInCU: 0xFA61, offset: 0xFA61, size: 0x8, addend: 0x0, symName: __ZNKSt3__117__compressed_pairIPxNS_9allocatorIxEEE5firstB7v160006Ev, symObjAddr: 0x5114, symBinAddr: 0x100005B28, symSize: 0xCC }
  - { offsetInCU: 0xFAD9, offset: 0xFAD9, size: 0x8, addend: 0x0, symName: __ZNKSt3__117__compressed_pairIPxNS_9allocatorIxEEE6secondB7v160006Ev, symObjAddr: 0x57D8, symBinAddr: 0x1000061EC, symSize: 0xD4 }
  - { offsetInCU: 0xFB3A, offset: 0xFB3A, size: 0x8, addend: 0x0, symName: __ZNSt12length_errorC1B7v160006EPKc, symObjAddr: 0x5924, symBinAddr: 0x100006338, symSize: 0xAC }
  - { offsetInCU: 0xFC00, offset: 0xFC00, size: 0x8, addend: 0x0, symName: __ZNSt3__117__compressed_pairIPxRNS_9allocatorIxEEEC2B7v160006IDnS4_EEOT_OT0_, symObjAddr: 0x5DE0, symBinAddr: 0x1000067F4, symSize: 0xFC }
  - { offsetInCU: 0xFCB6, offset: 0xFCB6, size: 0x8, addend: 0x0, symName: __ZNSt3__117__compressed_pairIPxRNS_9allocatorIxEEE6secondB7v160006Ev, symObjAddr: 0x5F38, symBinAddr: 0x10000694C, symSize: 0x100 }
  - { offsetInCU: 0xFE34, offset: 0xFE34, size: 0x8, addend: 0x0, symName: __ZNKSt3__116reverse_iteratorIPxEdeB7v160006Ev, symObjAddr: 0x6C1C, symBinAddr: 0x100007630, symSize: 0xC0 }
  - { offsetInCU: 0xFED9, offset: 0xFED9, size: 0x8, addend: 0x0, symName: __ZNSt3__114__split_bufferIxRNS_9allocatorIxEEE5clearB7v160006Ev, symObjAddr: 0x6DD0, symBinAddr: 0x1000077E4, symSize: 0xAC }
  - { offsetInCU: 0xFF2D, offset: 0xFF2D, size: 0x8, addend: 0x0, symName: __ZNKSt3__114__split_bufferIxRNS_9allocatorIxEEE8capacityB7v160006Ev, symObjAddr: 0x6E7C, symBinAddr: 0x100007890, symSize: 0x8C }
  - { offsetInCU: 0xFF89, offset: 0xFF89, size: 0x8, addend: 0x0, symName: __ZNSt3__114__split_bufferIxRNS_9allocatorIxEEE17__destruct_at_endB7v160006EPxNS_17integral_constantIbLb0EEE, symObjAddr: 0x6F08, symBinAddr: 0x10000791C, symSize: 0x100 }
  - { offsetInCU: 0xFFDD, offset: 0xFFDD, size: 0x8, addend: 0x0, symName: __ZNKSt3__114__split_bufferIxRNS_9allocatorIxEEE9__end_capB7v160006Ev, symObjAddr: 0x7008, symBinAddr: 0x100007A1C, symSize: 0x70 }
  - { offsetInCU: 0x10012, offset: 0x10012, size: 0x8, addend: 0x0, symName: __ZNKSt3__117__compressed_pairIPxRNS_9allocatorIxEEE5firstB7v160006Ev, symObjAddr: 0x7078, symBinAddr: 0x100007A8C, symSize: 0xCC }
  - { offsetInCU: 0x10196, offset: 0x10196, size: 0x8, addend: 0x0, symName: __ZNSt3__117__compressed_pairIPNS_4pairIxxEENS_9allocatorIS2_EEEC2B7v160006IDnNS_18__default_init_tagEEEOT_OT0_, symObjAddr: 0x80E8, symBinAddr: 0x100008AFC, symSize: 0xB0 }
  - { offsetInCU: 0x10215, offset: 0x10215, size: 0x8, addend: 0x0, symName: __ZNSt3__16vectorINS_4pairIxxEENS_9allocatorIS2_EEE11__vallocateB7v160006Em, symObjAddr: 0x7BE4, symBinAddr: 0x1000085F8, symSize: 0x1A0 }
  - { offsetInCU: 0x10302, offset: 0x10302, size: 0x8, addend: 0x0, symName: __ZNSt3__16vectorINS_4pairIxxEENS_9allocatorIS2_EEE18__construct_at_endEm, symObjAddr: 0x7D84, symBinAddr: 0x100008798, symSize: 0x31C }
  - { offsetInCU: 0x10470, offset: 0x10470, size: 0x8, addend: 0x0, symName: __ZNSt3__128__exception_guard_exceptionsINS_6vectorINS_4pairIxxEENS_9allocatorIS3_EEE16__destroy_vectorEED2B7v160006Ev, symObjAddr: 0x93A0, symBinAddr: 0x100009DB4, symSize: 0xF4 }
  - { offsetInCU: 0x104AF, offset: 0x104AF, size: 0x8, addend: 0x0, symName: __ZNSt3__128__exception_guard_exceptionsINS_6vectorINS_4pairIxxEENS_9allocatorIS3_EEE16__destroy_vectorEED1B7v160006Ev, symObjAddr: 0x80A0, symBinAddr: 0x100008AB4, symSize: 0x48 }
  - { offsetInCU: 0x10513, offset: 0x10513, size: 0x8, addend: 0x0, symName: __ZNKSt3__16vectorINS_4pairIxxEENS_9allocatorIS2_EEE7__allocB7v160006Ev, symObjAddr: 0x858C, symBinAddr: 0x100008FA0, symSize: 0x70 }
  - { offsetInCU: 0x10548, offset: 0x10548, size: 0x8, addend: 0x0, symName: __ZNSt3__16vectorINS_4pairIxxEENS_9allocatorIS2_EEE7__allocB7v160006Ev, symObjAddr: 0x829C, symBinAddr: 0x100008CB0, symSize: 0x70 }
  - { offsetInCU: 0x10578, offset: 0x10578, size: 0x8, addend: 0x0, symName: __ZNSt3__117__compressed_pairIPNS_4pairIxxEENS_9allocatorIS2_EEE5firstB7v160006Ev, symObjAddr: 0x87A4, symBinAddr: 0x1000091B8, symSize: 0xCC }
  - { offsetInCU: 0x105BE, offset: 0x105BE, size: 0x8, addend: 0x0, symName: __ZNKSt3__16vectorINS_4pairIxxEENS_9allocatorIS2_EEE14__annotate_newB7v160006Em, symObjAddr: 0x830C, symBinAddr: 0x100008D20, symSize: 0x280 }
  - { offsetInCU: 0x106B4, offset: 0x106B4, size: 0x8, addend: 0x0, symName: __ZNKSt3__16vectorINS_4pairIxxEENS_9allocatorIS2_EEE20__throw_length_errorB7v160006Ev, symObjAddr: 0x8214, symBinAddr: 0x100008C28, symSize: 0x44 }
  - { offsetInCU: 0x10825, offset: 0x10825, size: 0x8, addend: 0x0, symName: __ZNSt3__16vectorINS_4pairIxxEENS_9allocatorIS2_EEE21_ConstructTransactionC2B7v160006ERS5_m, symObjAddr: 0x8A38, symBinAddr: 0x10000944C, symSize: 0x194 }
  - { offsetInCU: 0x1087E, offset: 0x1087E, size: 0x8, addend: 0x0, symName: __ZNSt3__117__compressed_pairIPNS_4pairIxxEENS_9allocatorIS2_EEE6secondB7v160006Ev, symObjAddr: 0x86D0, symBinAddr: 0x1000090E4, symSize: 0xD4 }
  - { offsetInCU: 0x108C3, offset: 0x108C3, size: 0x8, addend: 0x0, symName: __ZNSt3__16vectorINS_4pairIxxEENS_9allocatorIS2_EEE21_ConstructTransactionD2B7v160006Ev, symObjAddr: 0x8F30, symBinAddr: 0x100009944, symSize: 0x214 }
  - { offsetInCU: 0x1092B, offset: 0x1092B, size: 0x8, addend: 0x0, symName: __ZNSt3__122__compressed_pair_elemINS_9allocatorINS_4pairIxxEEEELi1ELb1EEC2B7v160006ENS_18__default_init_tagE, symObjAddr: 0x8198, symBinAddr: 0x100008BAC, symSize: 0x7C }
  - { offsetInCU: 0x10A53, offset: 0x10A53, size: 0x8, addend: 0x0, symName: __ZNKSt3__16vectorINS_4pairIxxEENS_9allocatorIS2_EEE8capacityB7v160006Ev, symObjAddr: 0x8870, symBinAddr: 0x100009284, symSize: 0x8C }
  - { offsetInCU: 0x10A8E, offset: 0x10A8E, size: 0x8, addend: 0x0, symName: __ZNKSt3__117__compressed_pairIPNS_4pairIxxEENS_9allocatorIS2_EEE6secondB7v160006Ev, symObjAddr: 0x85FC, symBinAddr: 0x100009010, symSize: 0xD4 }
  - { offsetInCU: 0x10B1B, offset: 0x10B1B, size: 0x8, addend: 0x0, symName: __ZNKSt3__16vectorINS_4pairIxxEENS_9allocatorIS2_EEE9__end_capB7v160006Ev, symObjAddr: 0x88FC, symBinAddr: 0x100009310, symSize: 0x70 }
  - { offsetInCU: 0x10B50, offset: 0x10B50, size: 0x8, addend: 0x0, symName: __ZNKSt3__117__compressed_pairIPNS_4pairIxxEENS_9allocatorIS2_EEE5firstB7v160006Ev, symObjAddr: 0x896C, symBinAddr: 0x100009380, symSize: 0xCC }
  - { offsetInCU: 0x10BB2, offset: 0x10BB2, size: 0x8, addend: 0x0, symName: __ZNKSt3__16vectorINS_4pairIxxEENS_9allocatorIS2_EEE19__annotate_increaseB7v160006Em, symObjAddr: 0x8BCC, symBinAddr: 0x1000095E0, symSize: 0x2D8 }
  - { offsetInCU: 0x10CBC, offset: 0x10CBC, size: 0x8, addend: 0x0, symName: __ZNKSt3__16vectorINS_4pairIxxEENS_9allocatorIS2_EEE4sizeB7v160006Ev, symObjAddr: 0x8EA4, symBinAddr: 0x1000098B8, symSize: 0x8C }
  - { offsetInCU: 0x10CE3, offset: 0x10CE3, size: 0x8, addend: 0x0, symName: __ZNKSt3__16vectorINS_4pairIxxEENS_9allocatorIS2_EEE17__annotate_shrinkB7v160006Em, symObjAddr: 0x9144, symBinAddr: 0x100009B58, symSize: 0x25C }
  - { offsetInCU: 0x10E47, offset: 0x10E47, size: 0x8, addend: 0x0, symName: __ZNKSt3__16vectorINS_4pairIxxEENS_9allocatorIS2_EEE17__annotate_deleteB7v160006Ev, symObjAddr: 0x96D4, symBinAddr: 0x10000A0E8, symSize: 0x270 }
  - { offsetInCU: 0x10F41, offset: 0x10F41, size: 0x8, addend: 0x0, symName: __ZNSt3__16vectorINS_4pairIxxEENS_9allocatorIS2_EEE22__base_destruct_at_endB7v160006EPS2_, symObjAddr: 0x9944, symBinAddr: 0x10000A358, symSize: 0xE8 }
  - { offsetInCU: 0x1101C, offset: 0x1101C, size: 0x8, addend: 0x0, symName: __ZNSt3__16vectorIxNS_9allocatorIxEEE11__vallocateB7v160006Em, symObjAddr: 0x9D64, symBinAddr: 0x10000A778, symSize: 0x1A0 }
  - { offsetInCU: 0x11109, offset: 0x11109, size: 0x8, addend: 0x0, symName: __ZNSt3__16vectorIxNS_9allocatorIxEEE18__construct_at_endEm, symObjAddr: 0x9F04, symBinAddr: 0x10000A918, symSize: 0x300 }
  - { offsetInCU: 0x1124B, offset: 0x1124B, size: 0x8, addend: 0x0, symName: __ZNSt3__128__exception_guard_exceptionsINS_6vectorIxNS_9allocatorIxEEE16__destroy_vectorEED2B7v160006Ev, symObjAddr: 0xA24C, symBinAddr: 0x10000AC60, symSize: 0xF4 }
  - { offsetInCU: 0x1128A, offset: 0x1128A, size: 0x8, addend: 0x0, symName: __ZNSt3__128__exception_guard_exceptionsINS_6vectorIxNS_9allocatorIxEEE16__destroy_vectorEED1B7v160006Ev, symObjAddr: 0xA204, symBinAddr: 0x10000AC18, symSize: 0x48 }
  - { offsetInCU: 0x11376, offset: 0x11376, size: 0x8, addend: 0x0, symName: __ZNSt3__117__compressed_pairIPxNS_9allocatorIxEEEC2B7v160006IDnS3_EEOT_OT0_, symObjAddr: 0xA944, symBinAddr: 0x10000B358, symSize: 0xB0 }
  - { offsetInCU: 0x113E7, offset: 0x113E7, size: 0x8, addend: 0x0, symName: __ZNSt3__16vectorIxNS_9allocatorIxEEE18__construct_at_endIPxLi0EEEvT_S6_m, symObjAddr: 0xA6A0, symBinAddr: 0x10000B0B4, symSize: 0x2A4 }
  - { offsetInCU: 0x1164D, offset: 0x1164D, size: 0x8, addend: 0x0, symName: __ZNSt3__128__exception_guard_exceptionsINS_29_AllocatorDestroyRangeReverseINS_9allocatorIxEEPxEEED2B7v160006Ev, symObjAddr: 0xAE74, symBinAddr: 0x10000B888, symSize: 0xF4 }
  - { offsetInCU: 0x1168C, offset: 0x1168C, size: 0x8, addend: 0x0, symName: __ZNKSt3__129_AllocatorDestroyRangeReverseINS_9allocatorIxEEPxEclB7v160006Ev, symObjAddr: 0xAF68, symBinAddr: 0x10000B97C, symSize: 0x118 }
  - { offsetInCU: 0x11706, offset: 0x11706, size: 0x8, addend: 0x0, symName: __ZNSt3__18_IterOpsINS_17_ClassicAlgPolicyEE9iter_swapB7v160006IRPNS_4pairIxxEES7_EEvOT_OT0_, symObjAddr: 0xD700, symBinAddr: 0x10000E114, symSize: 0xAC }
  - { offsetInCU: 0x117A7, offset: 0x117A7, size: 0x8, addend: 0x0, symName: __ZNSt3__14pairIxxEaSB7v160006EOS1_, symObjAddr: 0xEE34, symBinAddr: 0x10000F848, symSize: 0xF8 }
  - { offsetInCU: 0x117DE, offset: 0x117DE, size: 0x8, addend: 0x0, symName: __ZNSt3__14pairIxxE4swapB7v160006ERS1_, symObjAddr: 0xE92C, symBinAddr: 0x10000F340, symSize: 0x164 }
...
