---
triple:          'arm64-apple-darwin'
binary-path:     a.out
relocations:
  - { offsetInCU: 0x3F, offset: 0x3F, size: 0x8, addend: 0x0, symName: _dx, symObjAddr: 0x115A0, symBinAddr: 0x10001C000, symSize: 0x0 }
  - { offsetInCU: 0x79, offset: 0x79, size: 0x8, addend: 0x0, symName: _dy, symObjAddr: 0x11600, symBinAddr: 0x10001C060, symSize: 0x0 }
  - { offsetInCU: 0x8B, offset: 0x8B, size: 0x8, addend: 0x0, symName: _.str, symObjAddr: 0x15C20, symBinAddr: 0x100015D60, symSize: 0x0 }
  - { offsetInCU: 0x4527, offset: 0x4527, size: 0x8, addend: 0x0, symName: __ZNSt3__111__introsortINS_17_ClassicAlgPolicyERNS_6__lessINS_4pairIxNS3_IxxEEEES5_EEPS5_EEvT1_S9_T0_NS_15iterator_traitsIS9_E15difference_typeE, symObjAddr: 0x5154, symBinAddr: 0x100008B68, symSize: 0x1884 }
  - { offsetInCU: 0x4BC6, offset: 0x4BC6, size: 0x8, addend: 0x0, symName: __ZNSt3__118__insertion_sort_3B7v160006INS_17_ClassicAlgPolicyERNS_6__lessINS_4pairIxNS3_IxxEEEES5_EEPS5_EEvT1_S9_T0_, symObjAddr: 0x6A84, symBinAddr: 0x10000A498, symSize: 0x3F4 }
  - { offsetInCU: 0x4D7C, offset: 0x4D7C, size: 0x8, addend: 0x0, symName: __ZNSt3__111__sift_downB7v160006INS_17_ClassicAlgPolicyERNS_6__lessINS_4pairIxNS3_IxxEEEES5_EEPS5_EEvT1_OT0_NS_15iterator_traitsIS9_E15difference_typeES9_, symObjAddr: 0x89F0, symBinAddr: 0x10000C404, symSize: 0x5B4 }
  - { offsetInCU: 0x4F5F, offset: 0x4F5F, size: 0x8, addend: 0x0, symName: __ZNSt3__117__floyd_sift_downB7v160006INS_17_ClassicAlgPolicyERNS_6__lessINS_4pairIxNS3_IxxEEEES5_EEPS5_EET1_S9_OT0_NS_15iterator_traitsIS9_E15difference_typeE, symObjAddr: 0x9290, symBinAddr: 0x10000CCA4, symSize: 0x284 }
  - { offsetInCU: 0x5060, offset: 0x5060, size: 0x8, addend: 0x0, symName: __ZNSt3__127__insertion_sort_incompleteIRNS_6__lessINS_4pairIxNS2_IxxEEEES4_EEPS4_EEbT0_S8_T_, symObjAddr: 0x72EC, symBinAddr: 0x10000AD00, symSize: 0x964 }
  - { offsetInCU: 0x90C3, offset: 0x90C3, size: 0x8, addend: 0x0, symName: __ZNSt3__111__sort_implB7v160006INS_17_ClassicAlgPolicyENS_11__wrap_iterIPNS_4pairIxNS3_IxxEEEEEENS_6__lessIS5_S5_EEEEvT0_SA_RT1_, symObjAddr: 0x5128, symBinAddr: 0x100008B3C, symSize: 0x2C }
  - { offsetInCU: 0x9107, offset: 0x9107, size: 0x8, addend: 0x0, symName: __ZNSt3__111__sort_implB7v160006INS_17_ClassicAlgPolicyENS_11__wrap_iterIPNS_4pairIxNS3_IxxEEEEEENS_6__lessIS5_S5_EEEEvT0_SA_RT1_, symObjAddr: 0x5128, symBinAddr: 0x100008B3C, symSize: 0x2C }
  - { offsetInCU: 0x9130, offset: 0x9130, size: 0x8, addend: 0x0, symName: __ZNSt3__111__sort_implB7v160006INS_17_ClassicAlgPolicyENS_11__wrap_iterIPNS_4pairIxNS3_IxxEEEEEENS_6__lessIS5_S5_EEEEvT0_SA_RT1_, symObjAddr: 0x5128, symBinAddr: 0x100008B3C, symSize: 0x2C }
  - { offsetInCU: 0x91B9, offset: 0x91B9, size: 0x8, addend: 0x0, symName: __ZNSt3__14endlB7v160006IcNS_11char_traitsIcEEEERNS_13basic_ostreamIT_T0_EES7_, symObjAddr: 0x270C, symBinAddr: 0x100006120, symSize: 0x21C }
  - { offsetInCU: 0x9232, offset: 0x9232, size: 0x8, addend: 0x0, symName: __ZNSt3__119__allocate_at_leastB7v160006INS_9allocatorINS_4pairIxNS2_IxxEEEEEEEENS_19__allocation_resultINS_16allocator_traitsIT_E7pointerEEERS8_m, symObjAddr: 0x35F4, symBinAddr: 0x100007008, symSize: 0x54 }
  - { offsetInCU: 0x92D1, offset: 0x92D1, size: 0x8, addend: 0x0, symName: __ZNSt3__120__throw_length_errorB7v160006EPKc, symObjAddr: 0x3AB0, symBinAddr: 0x1000074C4, symSize: 0x78 }
  - { offsetInCU: 0x9752, offset: 0x9752, size: 0x8, addend: 0x0, symName: __ZNSt3__17__sort5IRNS_6__lessINS_4pairIxNS2_IxxEEEES4_EEPS4_EEjT0_S8_S8_S8_S8_T_, symObjAddr: 0x98B4, symBinAddr: 0x10000D2C8, symSize: 0x4B0 }
  - { offsetInCU: 0x9982, offset: 0x9982, size: 0x8, addend: 0x0, symName: __ZNSt3__17__sort3B7v160006INS_17_ClassicAlgPolicyERNS_6__lessINS_4pairIxNS3_IxxEEEES5_EEPS5_EEjT1_S9_S9_T0_, symObjAddr: 0x6E78, symBinAddr: 0x10000A88C, symSize: 0x474 }
  - { offsetInCU: 0x9B90, offset: 0x9B90, size: 0x8, addend: 0x0, symName: __ZNSt3__1ltB7v160006IxNS_4pairIxxEEEEbRKNS1_IT_T0_EES7_, symObjAddr: 0x7C50, symBinAddr: 0x10000B664, symSize: 0x104 }
  - { offsetInCU: 0x9C5B, offset: 0x9C5B, size: 0x8, addend: 0x0, symName: __ZNSt3__17__sort4B7v160006INS_17_ClassicAlgPolicyERNS_6__lessINS_4pairIxNS3_IxxEEEES5_EEPS5_EEjT1_S9_S9_S9_T0_, symObjAddr: 0x7FC0, symBinAddr: 0x10000B9D4, symSize: 0x3D0 }
  - { offsetInCU: 0x9E11, offset: 0x9E11, size: 0x8, addend: 0x0, symName: __ZNSt3__119__partial_sort_implB7v160006INS_17_ClassicAlgPolicyERNS_6__lessINS_4pairIxNS3_IxxEEEES5_EEPS5_S8_EET1_S9_S9_T2_OT0_, symObjAddr: 0x8564, symBinAddr: 0x10000BF78, symSize: 0x48C }
  - { offsetInCU: 0xA241, offset: 0xA241, size: 0x8, addend: 0x0, symName: __ZNSt3__110__pop_heapB7v160006INS_17_ClassicAlgPolicyENS_6__lessINS_4pairIxNS3_IxxEEEES5_EEPS5_EEvT1_S8_RT0_NS_15iterator_traitsIS8_E15difference_typeE, symObjAddr: 0x8FA4, symBinAddr: 0x10000C9B8, symSize: 0x2EC }
  - { offsetInCU: 0xA396, offset: 0xA396, size: 0x8, addend: 0x0, symName: __ZNSt3__19__sift_upB7v160006INS_17_ClassicAlgPolicyERNS_6__lessINS_4pairIxNS3_IxxEEEES5_EEPS5_EEvT1_S9_OT0_NS_15iterator_traitsIS9_E15difference_typeE, symObjAddr: 0x9514, symBinAddr: 0x10000CF28, symSize: 0x3A0 }
  - { offsetInCU: 0xA512, offset: 0xA512, size: 0x8, addend: 0x0, symName: __ZNSt3__119__allocate_at_leastB7v160006INS_9allocatorIxEEEENS_19__allocation_resultINS_16allocator_traitsIT_E7pointerEEERS5_m, symObjAddr: 0xA730, symBinAddr: 0x10000E144, symSize: 0x44 }
  - { offsetInCU: 0xA5D5, offset: 0xA5D5, size: 0x8, addend: 0x0, symName: __ZNSt3__119__allocate_at_leastB7v160006INS_9allocatorINS_6vectorIxNS1_IxEEEEEEEENS_19__allocation_resultINS_16allocator_traitsIT_E7pointerEEERS8_m, symObjAddr: 0xC944, symBinAddr: 0x100010358, symSize: 0x54 }
  - { offsetInCU: 0xA673, offset: 0xA673, size: 0x8, addend: 0x0, symName: __ZNSt3__130__uninitialized_allocator_copyB7v160006INS_9allocatorIxEEPxS3_S3_EET2_RT_T0_T1_S4_, symObjAddr: 0xDE00, symBinAddr: 0x100011814, symSize: 0x480 }
  - { offsetInCU: 0xA7E3, offset: 0xA7E3, size: 0x8, addend: 0x0, symName: __ZNSt3__119__allocator_destroyB7v160006INS_9allocatorIxEENS_16reverse_iteratorIPxEES5_EEvRT_T0_T1_, symObjAddr: 0xE48C, symBinAddr: 0x100011EA0, symSize: 0x1F8 }
  - { offsetInCU: 0xAD9A, offset: 0xAD9A, size: 0x8, addend: 0x0, symName: __ZNSt3__19use_facetB7v160006INS_5ctypeIcEEEERKT_RKNS_6localeE, symObjAddr: 0xF610, symBinAddr: 0x100013024, symSize: 0x100 }
  - { offsetInCU: 0xB23C, offset: 0xB23C, size: 0x8, addend: 0x0, symName: __ZSt28__throw_bad_array_new_lengthB7v160006v, symObjAddr: 0x3BD4, symBinAddr: 0x1000075E8, symSize: 0x5C }
  - { offsetInCU: 0xDF0F, offset: 0xDF0F, size: 0x8, addend: 0x0, symName: _main, symObjAddr: 0x0, symBinAddr: 0x100003A14, symSize: 0x255C }
  - { offsetInCU: 0xE607, offset: 0xE607, size: 0x8, addend: 0x0, symName: __ZNSt3__16vectorINS_4pairIxNS1_IxxEEEENS_9allocatorIS3_EEEC2Em, symObjAddr: 0x2C88, symBinAddr: 0x10000669C, symSize: 0x338 }
  - { offsetInCU: 0xE762, offset: 0xE762, size: 0x8, addend: 0x0, symName: __ZNSt3__16vectorIxNS_9allocatorIxEEEC2EmRKx, symObjAddr: 0x9D64, symBinAddr: 0x10000D778, symSize: 0x340 }
  - { offsetInCU: 0xE8D1, offset: 0xE8D1, size: 0x8, addend: 0x0, symName: __ZNSt3__16vectorINS0_IxNS_9allocatorIxEEEENS1_IS3_EEEC2EmRKS3_, symObjAddr: 0xBF4C, symBinAddr: 0x10000F960, symSize: 0x340 }
  - { offsetInCU: 0xEA40, offset: 0xEA40, size: 0x8, addend: 0x0, symName: __ZNSt3__16vectorIxNS_9allocatorIxEEED1B7v160006Ev, symObjAddr: 0x255C, symBinAddr: 0x100005F70, symSize: 0x1B0 }
  - { offsetInCU: 0xEAAC, offset: 0xEAAC, size: 0x8, addend: 0x0, symName: __ZNSt3__16vectorINS0_IxNS_9allocatorIxEEEENS1_IS3_EEED1B7v160006Ev, symObjAddr: 0x2928, symBinAddr: 0x10000633C, symSize: 0x1B0 }
  - { offsetInCU: 0xEB18, offset: 0xEB18, size: 0x8, addend: 0x0, symName: __ZNSt3__16vectorINS_4pairIxNS1_IxxEEEENS_9allocatorIS3_EEED1B7v160006Ev, symObjAddr: 0x2AD8, symBinAddr: 0x1000064EC, symSize: 0x1B0 }
  - { offsetInCU: 0xEBF0, offset: 0xEBF0, size: 0x8, addend: 0x0, symName: __ZNSt3__16vectorIxNS_9allocatorIxEEE16__destroy_vectorclB7v160006Ev, symObjAddr: 0xB9B4, symBinAddr: 0x10000F3C8, symSize: 0x240 }
  - { offsetInCU: 0xED1F, offset: 0xED1F, size: 0x8, addend: 0x0, symName: __ZNKSt3__19basic_iosIcNS_11char_traitsIcEEE5widenB7v160006Ec, symObjAddr: 0xF2D0, symBinAddr: 0x100012CE4, symSize: 0x340 }
  - { offsetInCU: 0xEE10, offset: 0xEE10, size: 0x8, addend: 0x0, symName: __ZNSt3__16vectorINS0_IxNS_9allocatorIxEEEENS1_IS3_EEE16__destroy_vectorclB7v160006Ev, symObjAddr: 0xECDC, symBinAddr: 0x1000126F0, symSize: 0x240 }
  - { offsetInCU: 0xEFAB, offset: 0xEFAB, size: 0x8, addend: 0x0, symName: __ZNSt3__16vectorINS_4pairIxNS1_IxxEEEENS_9allocatorIS3_EEE16__destroy_vectorclB7v160006Ev, symObjAddr: 0x4B68, symBinAddr: 0x10000857C, symSize: 0x240 }
  - { offsetInCU: 0xF1A8, offset: 0xF1A8, size: 0x8, addend: 0x0, symName: __ZNSt3__117__compressed_pairIPNS_4pairIxNS1_IxxEEEENS_9allocatorIS3_EEEC2B7v160006IDnNS_18__default_init_tagEEEOT_OT0_, symObjAddr: 0x3484, symBinAddr: 0x100006E98, symSize: 0xB0 }
  - { offsetInCU: 0xF227, offset: 0xF227, size: 0x8, addend: 0x0, symName: __ZNSt3__16vectorINS_4pairIxNS1_IxxEEEENS_9allocatorIS3_EEE11__vallocateB7v160006Em, symObjAddr: 0x2FC0, symBinAddr: 0x1000069D4, symSize: 0x1BC }
  - { offsetInCU: 0xF314, offset: 0xF314, size: 0x8, addend: 0x0, symName: __ZNSt3__16vectorINS_4pairIxNS1_IxxEEEENS_9allocatorIS3_EEE18__construct_at_endEm, symObjAddr: 0x317C, symBinAddr: 0x100006B90, symSize: 0x2C0 }
  - { offsetInCU: 0xF455, offset: 0xF455, size: 0x8, addend: 0x0, symName: __ZNSt3__128__exception_guard_exceptionsINS_6vectorINS_4pairIxNS2_IxxEEEENS_9allocatorIS4_EEE16__destroy_vectorEED2B7v160006Ev, symObjAddr: 0x4A74, symBinAddr: 0x100008488, symSize: 0xF4 }
  - { offsetInCU: 0xF494, offset: 0xF494, size: 0x8, addend: 0x0, symName: __ZNSt3__128__exception_guard_exceptionsINS_6vectorINS_4pairIxNS2_IxxEEEENS_9allocatorIS4_EEE16__destroy_vectorEED1B7v160006Ev, symObjAddr: 0x343C, symBinAddr: 0x100006E50, symSize: 0x48 }
  - { offsetInCU: 0xF4F8, offset: 0xF4F8, size: 0x8, addend: 0x0, symName: __ZNKSt3__16vectorINS_4pairIxNS1_IxxEEEENS_9allocatorIS3_EEE7__allocB7v160006Ev, symObjAddr: 0x3960, symBinAddr: 0x100007374, symSize: 0x70 }
  - { offsetInCU: 0xF52D, offset: 0xF52D, size: 0x8, addend: 0x0, symName: __ZNSt3__16vectorINS_4pairIxNS1_IxxEEEENS_9allocatorIS3_EEE7__allocB7v160006Ev, symObjAddr: 0x3648, symBinAddr: 0x10000705C, symSize: 0x70 }
  - { offsetInCU: 0xF55D, offset: 0xF55D, size: 0x8, addend: 0x0, symName: __ZNSt3__117__compressed_pairIPNS_4pairIxNS1_IxxEEEENS_9allocatorIS3_EEE5firstB7v160006Ev, symObjAddr: 0x3D04, symBinAddr: 0x100007718, symSize: 0xCC }
  - { offsetInCU: 0xF5A1, offset: 0xF5A1, size: 0x8, addend: 0x0, symName: __ZNKSt3__16vectorINS_4pairIxNS1_IxxEEEENS_9allocatorIS3_EEE14__annotate_newB7v160006Em, symObjAddr: 0x36B8, symBinAddr: 0x1000070CC, symSize: 0x2A8 }
  - { offsetInCU: 0xF69C, offset: 0xF69C, size: 0x8, addend: 0x0, symName: __ZNKSt3__16vectorINS_4pairIxNS1_IxxEEEENS_9allocatorIS3_EEE20__throw_length_errorB7v160006Ev, symObjAddr: 0x35B0, symBinAddr: 0x100006FC4, symSize: 0x44 }
  - { offsetInCU: 0xF783, offset: 0xF783, size: 0x8, addend: 0x0, symName: __ZNSt3__16vectorINS_4pairIxNS1_IxxEEEENS_9allocatorIS3_EEE21_ConstructTransactionC2B7v160006ERS6_m, symObjAddr: 0x3FA4, symBinAddr: 0x1000079B8, symSize: 0x1A4 }
  - { offsetInCU: 0xF7DB, offset: 0xF7DB, size: 0x8, addend: 0x0, symName: __ZNSt3__117__compressed_pairIPNS_4pairIxNS1_IxxEEEENS_9allocatorIS3_EEE6secondB7v160006Ev, symObjAddr: 0x3C30, symBinAddr: 0x100007644, symSize: 0xD4 }
  - { offsetInCU: 0xF81E, offset: 0xF81E, size: 0x8, addend: 0x0, symName: __ZNSt3__19allocatorINS_4pairIxNS1_IxxEEEEE9constructB7v160006IS3_JEEEvPT_DpOT0_, symObjAddr: 0x44EC, symBinAddr: 0x100007F00, symSize: 0xE4 }
  - { offsetInCU: 0xF8BA, offset: 0xF8BA, size: 0x8, addend: 0x0, symName: __ZNSt3__16vectorINS_4pairIxNS1_IxxEEEENS_9allocatorIS3_EEE21_ConstructTransactionD2B7v160006Ev, symObjAddr: 0x45D0, symBinAddr: 0x100007FE4, symSize: 0x220 }
  - { offsetInCU: 0xF921, offset: 0xF921, size: 0x8, addend: 0x0, symName: __ZNSt3__122__compressed_pair_elemINS_9allocatorINS_4pairIxNS2_IxxEEEEEELi1ELb1EEC2B7v160006ENS_18__default_init_tagE, symObjAddr: 0x3534, symBinAddr: 0x100006F48, symSize: 0x7C }
  - { offsetInCU: 0xFA52, offset: 0xFA52, size: 0x8, addend: 0x0, symName: __ZNKSt3__16vectorINS_4pairIxNS1_IxxEEEENS_9allocatorIS3_EEE8capacityB7v160006Ev, symObjAddr: 0x3DD0, symBinAddr: 0x1000077E4, symSize: 0x98 }
  - { offsetInCU: 0xFA8D, offset: 0xFA8D, size: 0x8, addend: 0x0, symName: __ZNKSt3__117__compressed_pairIPNS_4pairIxNS1_IxxEEEENS_9allocatorIS3_EEE6secondB7v160006Ev, symObjAddr: 0x39DC, symBinAddr: 0x1000073F0, symSize: 0xD4 }
  - { offsetInCU: 0xFAEC, offset: 0xFAEC, size: 0x8, addend: 0x0, symName: __ZNSt12length_errorC1B7v160006EPKc, symObjAddr: 0x3B28, symBinAddr: 0x10000753C, symSize: 0xAC }
  - { offsetInCU: 0xFB9C, offset: 0xFB9C, size: 0x8, addend: 0x0, symName: __ZNKSt3__16vectorINS_4pairIxNS1_IxxEEEENS_9allocatorIS3_EEE9__end_capB7v160006Ev, symObjAddr: 0x3E68, symBinAddr: 0x10000787C, symSize: 0x70 }
  - { offsetInCU: 0xFBD1, offset: 0xFBD1, size: 0x8, addend: 0x0, symName: __ZNKSt3__117__compressed_pairIPNS_4pairIxNS1_IxxEEEENS_9allocatorIS3_EEE5firstB7v160006Ev, symObjAddr: 0x3ED8, symBinAddr: 0x1000078EC, symSize: 0xCC }
  - { offsetInCU: 0xFC31, offset: 0xFC31, size: 0x8, addend: 0x0, symName: __ZNKSt3__16vectorINS_4pairIxNS1_IxxEEEENS_9allocatorIS3_EEE19__annotate_increaseB7v160006Em, symObjAddr: 0x4148, symBinAddr: 0x100007B5C, symSize: 0x30C }
  - { offsetInCU: 0xFD40, offset: 0xFD40, size: 0x8, addend: 0x0, symName: __ZNKSt3__16vectorINS_4pairIxNS1_IxxEEEENS_9allocatorIS3_EEE4sizeB7v160006Ev, symObjAddr: 0x4454, symBinAddr: 0x100007E68, symSize: 0x98 }
  - { offsetInCU: 0xFE15, offset: 0xFE15, size: 0x8, addend: 0x0, symName: __ZNKSt3__16vectorINS_4pairIxNS1_IxxEEEENS_9allocatorIS3_EEE17__annotate_shrinkB7v160006Em, symObjAddr: 0x47F0, symBinAddr: 0x100008204, symSize: 0x284 }
  - { offsetInCU: 0xFF7E, offset: 0xFF7E, size: 0x8, addend: 0x0, symName: __ZNKSt3__16vectorINS_4pairIxNS1_IxxEEEENS_9allocatorIS3_EEE17__annotate_deleteB7v160006Ev, symObjAddr: 0x4DA8, symBinAddr: 0x1000087BC, symSize: 0x298 }
  - { offsetInCU: 0x1007D, offset: 0x1007D, size: 0x8, addend: 0x0, symName: __ZNSt3__16vectorINS_4pairIxNS1_IxxEEEENS_9allocatorIS3_EEE22__base_destruct_at_endB7v160006EPS3_, symObjAddr: 0x5040, symBinAddr: 0x100008A54, symSize: 0xE8 }
  - { offsetInCU: 0x10110, offset: 0x10110, size: 0x8, addend: 0x0, symName: __ZNSt3__18_IterOpsINS_17_ClassicAlgPolicyEE9iter_swapB7v160006IRPNS_4pairIxNS4_IxxEEEES8_EEvOT_OT0_, symObjAddr: 0x69D8, symBinAddr: 0x10000A3EC, symSize: 0xAC }
  - { offsetInCU: 0x101AD, offset: 0x101AD, size: 0x8, addend: 0x0, symName: __ZNSt3__14pairIxNS0_IxxEEE4swapB7v160006ERS2_, symObjAddr: 0x7D54, symBinAddr: 0x10000B768, symSize: 0x108 }
  - { offsetInCU: 0x1025D, offset: 0x1025D, size: 0x8, addend: 0x0, symName: __ZNSt3__14pairIxNS0_IxxEEEaSB7v160006EOS2_, symObjAddr: 0x8390, symBinAddr: 0x10000BDA4, symSize: 0xDC }
  - { offsetInCU: 0x102A1, offset: 0x102A1, size: 0x8, addend: 0x0, symName: __ZNSt3__14pairIxxE4swapB7v160006ERS1_, symObjAddr: 0x7E5C, symBinAddr: 0x10000B870, symSize: 0x164 }
  - { offsetInCU: 0x1032E, offset: 0x1032E, size: 0x8, addend: 0x0, symName: __ZNSt3__14pairIxxEaSB7v160006EOS1_, symObjAddr: 0x846C, symBinAddr: 0x10000BE80, symSize: 0xF8 }
  - { offsetInCU: 0x10427, offset: 0x10427, size: 0x8, addend: 0x0, symName: __ZNSt3__117__compressed_pairIPxNS_9allocatorIxEEEC2B7v160006IDnNS_18__default_init_tagEEEOT_OT0_, symObjAddr: 0xA5C0, symBinAddr: 0x10000DFD4, symSize: 0xB0 }
  - { offsetInCU: 0x104A6, offset: 0x104A6, size: 0x8, addend: 0x0, symName: __ZNSt3__16vectorIxNS_9allocatorIxEEE11__vallocateB7v160006Em, symObjAddr: 0xA0A4, symBinAddr: 0x10000DAB8, symSize: 0x1A0 }
  - { offsetInCU: 0x10593, offset: 0x10593, size: 0x8, addend: 0x0, symName: __ZNSt3__16vectorIxNS_9allocatorIxEEE18__construct_at_endEmRKx, symObjAddr: 0xA244, symBinAddr: 0x10000DC58, symSize: 0x334 }
  - { offsetInCU: 0x106FA, offset: 0x106FA, size: 0x8, addend: 0x0, symName: __ZNSt3__128__exception_guard_exceptionsINS_6vectorIxNS_9allocatorIxEEE16__destroy_vectorEED2B7v160006Ev, symObjAddr: 0xB8C0, symBinAddr: 0x10000F2D4, symSize: 0xF4 }
  - { offsetInCU: 0x10739, offset: 0x10739, size: 0x8, addend: 0x0, symName: __ZNSt3__128__exception_guard_exceptionsINS_6vectorIxNS_9allocatorIxEEE16__destroy_vectorEED1B7v160006Ev, symObjAddr: 0xA578, symBinAddr: 0x10000DF8C, symSize: 0x48 }
  - { offsetInCU: 0x10797, offset: 0x10797, size: 0x8, addend: 0x0, symName: __ZNKSt3__16vectorIxNS_9allocatorIxEEE7__allocB7v160006Ev, symObjAddr: 0xAA64, symBinAddr: 0x10000E478, symSize: 0x70 }
  - { offsetInCU: 0x107C7, offset: 0x107C7, size: 0x8, addend: 0x0, symName: __ZNSt3__16vectorIxNS_9allocatorIxEEE7__allocB7v160006Ev, symObjAddr: 0xA774, symBinAddr: 0x10000E188, symSize: 0x70 }
  - { offsetInCU: 0x107F7, offset: 0x107F7, size: 0x8, addend: 0x0, symName: __ZNSt3__117__compressed_pairIPxNS_9allocatorIxEEE5firstB7v160006Ev, symObjAddr: 0xAC7C, symBinAddr: 0x10000E690, symSize: 0xCC }
  - { offsetInCU: 0x1083B, offset: 0x1083B, size: 0x8, addend: 0x0, symName: __ZNKSt3__16vectorIxNS_9allocatorIxEEE14__annotate_newB7v160006Em, symObjAddr: 0xA7E4, symBinAddr: 0x10000E1F8, symSize: 0x280 }
  - { offsetInCU: 0x10936, offset: 0x10936, size: 0x8, addend: 0x0, symName: __ZNKSt3__16vectorIxNS_9allocatorIxEEE20__throw_length_errorB7v160006Ev, symObjAddr: 0xA6EC, symBinAddr: 0x10000E100, symSize: 0x44 }
  - { offsetInCU: 0x10A75, offset: 0x10A75, size: 0x8, addend: 0x0, symName: __ZNSt3__16vectorIxNS_9allocatorIxEEE21_ConstructTransactionC2B7v160006ERS3_m, symObjAddr: 0xAF58, symBinAddr: 0x10000E96C, symSize: 0x194 }
  - { offsetInCU: 0x10ACD, offset: 0x10ACD, size: 0x8, addend: 0x0, symName: __ZNSt3__117__compressed_pairIPxNS_9allocatorIxEEE6secondB7v160006Ev, symObjAddr: 0xABA8, symBinAddr: 0x10000E5BC, symSize: 0xD4 }
  - { offsetInCU: 0x10B10, offset: 0x10B10, size: 0x8, addend: 0x0, symName: __ZNSt3__16vectorIxNS_9allocatorIxEEE21_ConstructTransactionD2B7v160006Ev, symObjAddr: 0xB450, symBinAddr: 0x10000EE64, symSize: 0x214 }
  - { offsetInCU: 0x10B77, offset: 0x10B77, size: 0x8, addend: 0x0, symName: __ZNSt3__122__compressed_pair_elemINS_9allocatorIxEELi1ELb1EEC2B7v160006ENS_18__default_init_tagE, symObjAddr: 0xA670, symBinAddr: 0x10000E084, symSize: 0x7C }
  - { offsetInCU: 0x10C9D, offset: 0x10C9D, size: 0x8, addend: 0x0, symName: __ZNKSt3__16vectorIxNS_9allocatorIxEEE8capacityB7v160006Ev, symObjAddr: 0xAD48, symBinAddr: 0x10000E75C, symSize: 0x8C }
  - { offsetInCU: 0x10CD8, offset: 0x10CD8, size: 0x8, addend: 0x0, symName: __ZNKSt3__117__compressed_pairIPxNS_9allocatorIxEEE6secondB7v160006Ev, symObjAddr: 0xAAD4, symBinAddr: 0x10000E4E8, symSize: 0xD4 }
  - { offsetInCU: 0x10D63, offset: 0x10D63, size: 0x8, addend: 0x0, symName: __ZNKSt3__16vectorIxNS_9allocatorIxEEE9__end_capB7v160006Ev, symObjAddr: 0xADD4, symBinAddr: 0x10000E7E8, symSize: 0x70 }
  - { offsetInCU: 0x10D98, offset: 0x10D98, size: 0x8, addend: 0x0, symName: __ZNKSt3__117__compressed_pairIPxNS_9allocatorIxEEE5firstB7v160006Ev, symObjAddr: 0xAE44, symBinAddr: 0x10000E858, symSize: 0xCC }
  - { offsetInCU: 0x10DF8, offset: 0x10DF8, size: 0x8, addend: 0x0, symName: __ZNSt3__16vectorIxNS_9allocatorIxEEE21_ConstructTransactionD1B7v160006Ev, symObjAddr: 0xAF10, symBinAddr: 0x10000E924, symSize: 0x48 }
  - { offsetInCU: 0x10E28, offset: 0x10E28, size: 0x8, addend: 0x0, symName: __ZNKSt3__16vectorIxNS_9allocatorIxEEE19__annotate_increaseB7v160006Em, symObjAddr: 0xB0EC, symBinAddr: 0x10000EB00, symSize: 0x2D8 }
  - { offsetInCU: 0x10F37, offset: 0x10F37, size: 0x8, addend: 0x0, symName: __ZNKSt3__16vectorIxNS_9allocatorIxEEE4sizeB7v160006Ev, symObjAddr: 0xB3C4, symBinAddr: 0x10000EDD8, symSize: 0x8C }
  - { offsetInCU: 0x10F5E, offset: 0x10F5E, size: 0x8, addend: 0x0, symName: __ZNKSt3__16vectorIxNS_9allocatorIxEEE17__annotate_shrinkB7v160006Em, symObjAddr: 0xB664, symBinAddr: 0x10000F078, symSize: 0x25C }
  - { offsetInCU: 0x110C7, offset: 0x110C7, size: 0x8, addend: 0x0, symName: __ZNKSt3__16vectorIxNS_9allocatorIxEEE17__annotate_deleteB7v160006Ev, symObjAddr: 0xBBF4, symBinAddr: 0x10000F608, symSize: 0x270 }
  - { offsetInCU: 0x111C6, offset: 0x111C6, size: 0x8, addend: 0x0, symName: __ZNSt3__16vectorIxNS_9allocatorIxEEE22__base_destruct_at_endB7v160006EPx, symObjAddr: 0xBE64, symBinAddr: 0x10000F878, symSize: 0xE8 }
  - { offsetInCU: 0x112E3, offset: 0x112E3, size: 0x8, addend: 0x0, symName: __ZNSt3__117__compressed_pairIPNS_6vectorIxNS_9allocatorIxEEEENS2_IS4_EEEC2B7v160006IDnNS_18__default_init_tagEEEOT_OT0_, symObjAddr: 0xC7D4, symBinAddr: 0x1000101E8, symSize: 0xB0 }
  - { offsetInCU: 0x11362, offset: 0x11362, size: 0x8, addend: 0x0, symName: __ZNSt3__16vectorINS0_IxNS_9allocatorIxEEEENS1_IS3_EEE11__vallocateB7v160006Em, symObjAddr: 0xC28C, symBinAddr: 0x10000FCA0, symSize: 0x1BC }
  - { offsetInCU: 0x1144F, offset: 0x1144F, size: 0x8, addend: 0x0, symName: __ZNSt3__16vectorINS0_IxNS_9allocatorIxEEEENS1_IS3_EEE18__construct_at_endEmRKS3_, symObjAddr: 0xC448, symBinAddr: 0x10000FE5C, symSize: 0x344 }
  - { offsetInCU: 0x115A5, offset: 0x115A5, size: 0x8, addend: 0x0, symName: __ZNSt3__128__exception_guard_exceptionsINS_6vectorINS1_IxNS_9allocatorIxEEEENS2_IS4_EEE16__destroy_vectorEED2B7v160006Ev, symObjAddr: 0xEBE8, symBinAddr: 0x1000125FC, symSize: 0xF4 }
  - { offsetInCU: 0x115E4, offset: 0x115E4, size: 0x8, addend: 0x0, symName: __ZNSt3__128__exception_guard_exceptionsINS_6vectorINS1_IxNS_9allocatorIxEEEENS2_IS4_EEE16__destroy_vectorEED1B7v160006Ev, symObjAddr: 0xC78C, symBinAddr: 0x1000101A0, symSize: 0x48 }
  - { offsetInCU: 0x11648, offset: 0x11648, size: 0x8, addend: 0x0, symName: __ZNKSt3__16vectorINS0_IxNS_9allocatorIxEEEENS1_IS3_EEE7__allocB7v160006Ev, symObjAddr: 0xCCB0, symBinAddr: 0x1000106C4, symSize: 0x70 }
  - { offsetInCU: 0x1167D, offset: 0x1167D, size: 0x8, addend: 0x0, symName: __ZNSt3__16vectorINS0_IxNS_9allocatorIxEEEENS1_IS3_EEE7__allocB7v160006Ev, symObjAddr: 0xC998, symBinAddr: 0x1000103AC, symSize: 0x70 }
  - { offsetInCU: 0x116AD, offset: 0x116AD, size: 0x8, addend: 0x0, symName: __ZNSt3__117__compressed_pairIPNS_6vectorIxNS_9allocatorIxEEEENS2_IS4_EEE5firstB7v160006Ev, symObjAddr: 0xCEC8, symBinAddr: 0x1000108DC, symSize: 0xCC }
  - { offsetInCU: 0x116F1, offset: 0x116F1, size: 0x8, addend: 0x0, symName: __ZNKSt3__16vectorINS0_IxNS_9allocatorIxEEEENS1_IS3_EEE14__annotate_newB7v160006Em, symObjAddr: 0xCA08, symBinAddr: 0x10001041C, symSize: 0x2A8 }
  - { offsetInCU: 0x117EC, offset: 0x117EC, size: 0x8, addend: 0x0, symName: __ZNKSt3__16vectorINS0_IxNS_9allocatorIxEEEENS1_IS3_EEE20__throw_length_errorB7v160006Ev, symObjAddr: 0xC900, symBinAddr: 0x100010314, symSize: 0x44 }
  - { offsetInCU: 0x118A4, offset: 0x118A4, size: 0x8, addend: 0x0, symName: __ZNSt3__16vectorINS0_IxNS_9allocatorIxEEEENS1_IS3_EEE21_ConstructTransactionC2B7v160006ERS5_m, symObjAddr: 0xD204, symBinAddr: 0x100010C18, symSize: 0x1A4 }
  - { offsetInCU: 0x118FC, offset: 0x118FC, size: 0x8, addend: 0x0, symName: __ZNSt3__117__compressed_pairIPNS_6vectorIxNS_9allocatorIxEEEENS2_IS4_EEE6secondB7v160006Ev, symObjAddr: 0xCDF4, symBinAddr: 0x100010808, symSize: 0xD4 }
  - { offsetInCU: 0x1193F, offset: 0x1193F, size: 0x8, addend: 0x0, symName: __ZNSt3__116allocator_traitsINS_9allocatorINS_6vectorIxNS1_IxEEEEEEE9constructB7v160006IS4_JRKS4_EvEEvRS5_PT_DpOT0_, symObjAddr: 0xD168, symBinAddr: 0x100010B7C, symSize: 0x54 }
  - { offsetInCU: 0x119E5, offset: 0x119E5, size: 0x8, addend: 0x0, symName: __ZNSt3__16vectorINS0_IxNS_9allocatorIxEEEENS1_IS3_EEE21_ConstructTransactionD2B7v160006Ev, symObjAddr: 0xE744, symBinAddr: 0x100012158, symSize: 0x220 }
  - { offsetInCU: 0x11A1D, offset: 0x11A1D, size: 0x8, addend: 0x0, symName: __ZNSt3__16vectorINS0_IxNS_9allocatorIxEEEENS1_IS3_EEE21_ConstructTransactionD1B7v160006Ev, symObjAddr: 0xD1BC, symBinAddr: 0x100010BD0, symSize: 0x48 }
  - { offsetInCU: 0x11A7C, offset: 0x11A7C, size: 0x8, addend: 0x0, symName: __ZNSt3__122__compressed_pair_elemINS_9allocatorINS_6vectorIxNS1_IxEEEEEELi1ELb1EEC2B7v160006ENS_18__default_init_tagE, symObjAddr: 0xC884, symBinAddr: 0x100010298, symSize: 0x7C }
  - { offsetInCU: 0x11BA8, offset: 0x11BA8, size: 0x8, addend: 0x0, symName: __ZNKSt3__16vectorINS0_IxNS_9allocatorIxEEEENS1_IS3_EEE8capacityB7v160006Ev, symObjAddr: 0xCF94, symBinAddr: 0x1000109A8, symSize: 0x98 }
  - { offsetInCU: 0x11BE3, offset: 0x11BE3, size: 0x8, addend: 0x0, symName: __ZNKSt3__117__compressed_pairIPNS_6vectorIxNS_9allocatorIxEEEENS2_IS4_EEE6secondB7v160006Ev, symObjAddr: 0xCD20, symBinAddr: 0x100010734, symSize: 0xD4 }
  - { offsetInCU: 0x11C6E, offset: 0x11C6E, size: 0x8, addend: 0x0, symName: __ZNKSt3__16vectorINS0_IxNS_9allocatorIxEEEENS1_IS3_EEE9__end_capB7v160006Ev, symObjAddr: 0xD02C, symBinAddr: 0x100010A40, symSize: 0x70 }
  - { offsetInCU: 0x11CA3, offset: 0x11CA3, size: 0x8, addend: 0x0, symName: __ZNKSt3__117__compressed_pairIPNS_6vectorIxNS_9allocatorIxEEEENS2_IS4_EEE5firstB7v160006Ev, symObjAddr: 0xD09C, symBinAddr: 0x100010AB0, symSize: 0xCC }
  - { offsetInCU: 0x11D6B, offset: 0x11D6B, size: 0x8, addend: 0x0, symName: __ZNSt3__16vectorIxNS_9allocatorIxEEEC2ERKS3_, symObjAddr: 0xD74C, symBinAddr: 0x100011160, symSize: 0x360 }
  - { offsetInCU: 0x11F1F, offset: 0x11F1F, size: 0x8, addend: 0x0, symName: __ZNKSt3__16vectorINS0_IxNS_9allocatorIxEEEENS1_IS3_EEE19__annotate_increaseB7v160006Em, symObjAddr: 0xD3A8, symBinAddr: 0x100010DBC, symSize: 0x30C }
  - { offsetInCU: 0x1202E, offset: 0x1202E, size: 0x8, addend: 0x0, symName: __ZNKSt3__16vectorINS0_IxNS_9allocatorIxEEEENS1_IS3_EEE4sizeB7v160006Ev, symObjAddr: 0xD6B4, symBinAddr: 0x1000110C8, symSize: 0x98 }
  - { offsetInCU: 0x120B3, offset: 0x120B3, size: 0x8, addend: 0x0, symName: __ZNSt3__117__compressed_pairIPxNS_9allocatorIxEEEC2B7v160006IDnS3_EEOT_OT0_, symObjAddr: 0xDD50, symBinAddr: 0x100011764, symSize: 0xB0 }
  - { offsetInCU: 0x12124, offset: 0x12124, size: 0x8, addend: 0x0, symName: __ZNSt3__16vectorIxNS_9allocatorIxEEE18__construct_at_endIPxLi0EEEvT_S6_m, symObjAddr: 0xDAAC, symBinAddr: 0x1000114C0, symSize: 0x2A4 }
  - { offsetInCU: 0x1238A, offset: 0x1238A, size: 0x8, addend: 0x0, symName: __ZNSt3__128__exception_guard_exceptionsINS_29_AllocatorDestroyRangeReverseINS_9allocatorIxEEPxEEED2B7v160006Ev, symObjAddr: 0xE280, symBinAddr: 0x100011C94, symSize: 0xF4 }
  - { offsetInCU: 0x123C9, offset: 0x123C9, size: 0x8, addend: 0x0, symName: __ZNKSt3__129_AllocatorDestroyRangeReverseINS_9allocatorIxEEPxEclB7v160006Ev, symObjAddr: 0xE374, symBinAddr: 0x100011D88, symSize: 0x118 }
  - { offsetInCU: 0x1244F, offset: 0x1244F, size: 0x8, addend: 0x0, symName: __ZNKSt3__116reverse_iteratorIPxEdeB7v160006Ev, symObjAddr: 0xE684, symBinAddr: 0x100012098, symSize: 0xC0 }
  - { offsetInCU: 0x12485, offset: 0x12485, size: 0x8, addend: 0x0, symName: __ZNKSt3__16vectorINS0_IxNS_9allocatorIxEEEENS1_IS3_EEE17__annotate_shrinkB7v160006Em, symObjAddr: 0xE964, symBinAddr: 0x100012378, symSize: 0x284 }
  - { offsetInCU: 0x125EE, offset: 0x125EE, size: 0x8, addend: 0x0, symName: __ZNKSt3__16vectorINS0_IxNS_9allocatorIxEEEENS1_IS3_EEE17__annotate_deleteB7v160006Ev, symObjAddr: 0xEF1C, symBinAddr: 0x100012930, symSize: 0x298 }
  - { offsetInCU: 0x126ED, offset: 0x126ED, size: 0x8, addend: 0x0, symName: __ZNSt3__16vectorINS0_IxNS_9allocatorIxEEEENS1_IS3_EEE22__base_destruct_at_endB7v160006EPS3_, symObjAddr: 0xF1B4, symBinAddr: 0x100012BC8, symSize: 0x11C }
...
