---
triple:          'arm64-apple-darwin'
binary-path:     a.out
relocations:
  - { offsetInCU: 0x3F, offset: 0x3F, size: 0x8, addend: 0x0, symName: _dx, symObjAddr: 0x8200, symBinAddr: 0x100010000, symSize: 0x0 }
  - { offsetInCU: 0x79, offset: 0x79, size: 0x8, addend: 0x0, symName: _dy, symObjAddr: 0x8260, symBinAddr: 0x100010060, symSize: 0x0 }
  - { offsetInCU: 0x8B, offset: 0x8B, size: 0x8, addend: 0x0, symName: _.str, symObjAddr: 0xB5C0, symBinAddr: 0x10000AA60, symSize: 0x0 }
  - { offsetInCU: 0x6DB0, offset: 0x6DB0, size: 0x8, addend: 0x0, symName: __ZNSt3__14endlB7v160006IcNS_11char_traitsIcEEEERNS_13basic_ostreamIT_T0_EES7_, symObjAddr: 0x2058, symBinAddr: 0x1000031AC, symSize: 0x21C }
  - { offsetInCU: 0x6E29, offset: 0x6E29, size: 0x8, addend: 0x0, symName: __ZNSt3__119__allocate_at_leastB7v160006INS_9allocatorIxEEEENS_19__allocation_resultINS_16allocator_traitsIT_E7pointerEEERS5_m, symObjAddr: 0x2DF0, symBinAddr: 0x100003F44, symSize: 0x44 }
  - { offsetInCU: 0x6EC7, offset: 0x6EC7, size: 0x8, addend: 0x0, symName: __ZNSt3__120__throw_length_errorB7v160006EPKc, symObjAddr: 0x3274, symBinAddr: 0x1000043C8, symSize: 0x78 }
  - { offsetInCU: 0x7020, offset: 0x7020, size: 0x8, addend: 0x0, symName: __ZNSt3__119__allocate_at_leastB7v160006INS_9allocatorINS_6vectorIxNS1_IxEEEEEEEENS_19__allocation_resultINS_16allocator_traitsIT_E7pointerEEERS8_m, symObjAddr: 0x5190, symBinAddr: 0x1000062E4, symSize: 0x54 }
  - { offsetInCU: 0x70BE, offset: 0x70BE, size: 0x8, addend: 0x0, symName: __ZNSt3__130__uninitialized_allocator_copyB7v160006INS_9allocatorIxEEPxS3_S3_EET2_RT_T0_T1_S4_, symObjAddr: 0x664C, symBinAddr: 0x1000077A0, symSize: 0x480 }
  - { offsetInCU: 0x722A, offset: 0x722A, size: 0x8, addend: 0x0, symName: __ZNSt3__119__allocator_destroyB7v160006INS_9allocatorIxEENS_16reverse_iteratorIPxEES5_EEvRT_T0_T1_, symObjAddr: 0x6CD8, symBinAddr: 0x100007E2C, symSize: 0x1F8 }
  - { offsetInCU: 0x77DF, offset: 0x77DF, size: 0x8, addend: 0x0, symName: __ZNSt3__19use_facetB7v160006INS_5ctypeIcEEEERKT_RKNS_6localeE, symObjAddr: 0x7E5C, symBinAddr: 0x100008FB0, symSize: 0x100 }
  - { offsetInCU: 0x7BAA, offset: 0x7BAA, size: 0x8, addend: 0x0, symName: __ZSt28__throw_bad_array_new_lengthB7v160006v, symObjAddr: 0x3398, symBinAddr: 0x1000044EC, symSize: 0x5C }
  - { offsetInCU: 0xA58E, offset: 0xA58E, size: 0x8, addend: 0x0, symName: _main, symObjAddr: 0x0, symBinAddr: 0x100001154, symSize: 0x1EA8 }
  - { offsetInCU: 0xAACB, offset: 0xAACB, size: 0x8, addend: 0x0, symName: __ZNSt3__16vectorIxNS_9allocatorIxEEEC2EmRKx, symObjAddr: 0x2424, symBinAddr: 0x100003578, symSize: 0x340 }
  - { offsetInCU: 0xAC38, offset: 0xAC38, size: 0x8, addend: 0x0, symName: __ZNSt3__16vectorINS0_IxNS_9allocatorIxEEEENS1_IS3_EEEC2EmRKS3_, symObjAddr: 0x4798, symBinAddr: 0x1000058EC, symSize: 0x340 }
  - { offsetInCU: 0xADA5, offset: 0xADA5, size: 0x8, addend: 0x0, symName: __ZNSt3__16vectorIxNS_9allocatorIxEEED1B7v160006Ev, symObjAddr: 0x1EA8, symBinAddr: 0x100002FFC, symSize: 0x1B0 }
  - { offsetInCU: 0xAE10, offset: 0xAE10, size: 0x8, addend: 0x0, symName: __ZNSt3__16vectorINS0_IxNS_9allocatorIxEEEENS1_IS3_EEED1B7v160006Ev, symObjAddr: 0x2274, symBinAddr: 0x1000033C8, symSize: 0x1B0 }
  - { offsetInCU: 0xAEE6, offset: 0xAEE6, size: 0x8, addend: 0x0, symName: __ZNSt3__16vectorIxNS_9allocatorIxEEE16__destroy_vectorclB7v160006Ev, symObjAddr: 0x4200, symBinAddr: 0x100005354, symSize: 0x240 }
  - { offsetInCU: 0xB014, offset: 0xB014, size: 0x8, addend: 0x0, symName: __ZNKSt3__19basic_iosIcNS_11char_traitsIcEEE5widenB7v160006Ec, symObjAddr: 0x7B1C, symBinAddr: 0x100008C70, symSize: 0x340 }
  - { offsetInCU: 0xB103, offset: 0xB103, size: 0x8, addend: 0x0, symName: __ZNSt3__16vectorINS0_IxNS_9allocatorIxEEEENS1_IS3_EEE16__destroy_vectorclB7v160006Ev, symObjAddr: 0x7528, symBinAddr: 0x10000867C, symSize: 0x240 }
  - { offsetInCU: 0xB2FE, offset: 0xB2FE, size: 0x8, addend: 0x0, symName: __ZNSt3__117__compressed_pairIPxNS_9allocatorIxEEEC2B7v160006IDnNS_18__default_init_tagEEEOT_OT0_, symObjAddr: 0x2C80, symBinAddr: 0x100003DD4, symSize: 0xB0 }
  - { offsetInCU: 0xB37D, offset: 0xB37D, size: 0x8, addend: 0x0, symName: __ZNSt3__16vectorIxNS_9allocatorIxEEE11__vallocateB7v160006Em, symObjAddr: 0x2764, symBinAddr: 0x1000038B8, symSize: 0x1A0 }
  - { offsetInCU: 0xB469, offset: 0xB469, size: 0x8, addend: 0x0, symName: __ZNSt3__16vectorIxNS_9allocatorIxEEE18__construct_at_endEmRKx, symObjAddr: 0x2904, symBinAddr: 0x100003A58, symSize: 0x334 }
  - { offsetInCU: 0xB5CE, offset: 0xB5CE, size: 0x8, addend: 0x0, symName: __ZNSt3__128__exception_guard_exceptionsINS_6vectorIxNS_9allocatorIxEEE16__destroy_vectorEED2B7v160006Ev, symObjAddr: 0x410C, symBinAddr: 0x100005260, symSize: 0xF4 }
  - { offsetInCU: 0xB60D, offset: 0xB60D, size: 0x8, addend: 0x0, symName: __ZNSt3__128__exception_guard_exceptionsINS_6vectorIxNS_9allocatorIxEEE16__destroy_vectorEED1B7v160006Ev, symObjAddr: 0x2C38, symBinAddr: 0x100003D8C, symSize: 0x48 }
  - { offsetInCU: 0xB66B, offset: 0xB66B, size: 0x8, addend: 0x0, symName: __ZNKSt3__16vectorIxNS_9allocatorIxEEE7__allocB7v160006Ev, symObjAddr: 0x3124, symBinAddr: 0x100004278, symSize: 0x70 }
  - { offsetInCU: 0xB69B, offset: 0xB69B, size: 0x8, addend: 0x0, symName: __ZNSt3__16vectorIxNS_9allocatorIxEEE7__allocB7v160006Ev, symObjAddr: 0x2E34, symBinAddr: 0x100003F88, symSize: 0x70 }
  - { offsetInCU: 0xB6CB, offset: 0xB6CB, size: 0x8, addend: 0x0, symName: __ZNSt3__117__compressed_pairIPxNS_9allocatorIxEEE5firstB7v160006Ev, symObjAddr: 0x34C8, symBinAddr: 0x10000461C, symSize: 0xCC }
  - { offsetInCU: 0xB70F, offset: 0xB70F, size: 0x8, addend: 0x0, symName: __ZNKSt3__16vectorIxNS_9allocatorIxEEE14__annotate_newB7v160006Em, symObjAddr: 0x2EA4, symBinAddr: 0x100003FF8, symSize: 0x280 }
  - { offsetInCU: 0xB805, offset: 0xB805, size: 0x8, addend: 0x0, symName: __ZNKSt3__16vectorIxNS_9allocatorIxEEE20__throw_length_errorB7v160006Ev, symObjAddr: 0x2DAC, symBinAddr: 0x100003F00, symSize: 0x44 }
  - { offsetInCU: 0xB941, offset: 0xB941, size: 0x8, addend: 0x0, symName: __ZNSt3__16vectorIxNS_9allocatorIxEEE21_ConstructTransactionC2B7v160006ERS3_m, symObjAddr: 0x37A4, symBinAddr: 0x1000048F8, symSize: 0x194 }
  - { offsetInCU: 0xB999, offset: 0xB999, size: 0x8, addend: 0x0, symName: __ZNSt3__117__compressed_pairIPxNS_9allocatorIxEEE6secondB7v160006Ev, symObjAddr: 0x33F4, symBinAddr: 0x100004548, symSize: 0xD4 }
  - { offsetInCU: 0xB9DC, offset: 0xB9DC, size: 0x8, addend: 0x0, symName: __ZNSt3__16vectorIxNS_9allocatorIxEEE21_ConstructTransactionD2B7v160006Ev, symObjAddr: 0x3C9C, symBinAddr: 0x100004DF0, symSize: 0x214 }
  - { offsetInCU: 0xBA43, offset: 0xBA43, size: 0x8, addend: 0x0, symName: __ZNSt3__122__compressed_pair_elemINS_9allocatorIxEELi1ELb1EEC2B7v160006ENS_18__default_init_tagE, symObjAddr: 0x2D30, symBinAddr: 0x100003E84, symSize: 0x7C }
  - { offsetInCU: 0xBB6D, offset: 0xBB6D, size: 0x8, addend: 0x0, symName: __ZNKSt3__16vectorIxNS_9allocatorIxEEE8capacityB7v160006Ev, symObjAddr: 0x3594, symBinAddr: 0x1000046E8, symSize: 0x8C }
  - { offsetInCU: 0xBBA8, offset: 0xBBA8, size: 0x8, addend: 0x0, symName: __ZNKSt3__117__compressed_pairIPxNS_9allocatorIxEEE6secondB7v160006Ev, symObjAddr: 0x31A0, symBinAddr: 0x1000042F4, symSize: 0xD4 }
  - { offsetInCU: 0xBC06, offset: 0xBC06, size: 0x8, addend: 0x0, symName: __ZNSt12length_errorC1B7v160006EPKc, symObjAddr: 0x32EC, symBinAddr: 0x100004440, symSize: 0xAC }
  - { offsetInCU: 0xBCB5, offset: 0xBCB5, size: 0x8, addend: 0x0, symName: __ZNKSt3__16vectorIxNS_9allocatorIxEEE9__end_capB7v160006Ev, symObjAddr: 0x3620, symBinAddr: 0x100004774, symSize: 0x70 }
  - { offsetInCU: 0xBCEA, offset: 0xBCEA, size: 0x8, addend: 0x0, symName: __ZNKSt3__117__compressed_pairIPxNS_9allocatorIxEEE5firstB7v160006Ev, symObjAddr: 0x3690, symBinAddr: 0x1000047E4, symSize: 0xCC }
  - { offsetInCU: 0xBD49, offset: 0xBD49, size: 0x8, addend: 0x0, symName: __ZNSt3__16vectorIxNS_9allocatorIxEEE21_ConstructTransactionD1B7v160006Ev, symObjAddr: 0x375C, symBinAddr: 0x1000048B0, symSize: 0x48 }
  - { offsetInCU: 0xBD79, offset: 0xBD79, size: 0x8, addend: 0x0, symName: __ZNKSt3__16vectorIxNS_9allocatorIxEEE19__annotate_increaseB7v160006Em, symObjAddr: 0x3938, symBinAddr: 0x100004A8C, symSize: 0x2D8 }
  - { offsetInCU: 0xBE83, offset: 0xBE83, size: 0x8, addend: 0x0, symName: __ZNKSt3__16vectorIxNS_9allocatorIxEEE4sizeB7v160006Ev, symObjAddr: 0x3C10, symBinAddr: 0x100004D64, symSize: 0x8C }
  - { offsetInCU: 0xBEAA, offset: 0xBEAA, size: 0x8, addend: 0x0, symName: __ZNKSt3__16vectorIxNS_9allocatorIxEEE17__annotate_shrinkB7v160006Em, symObjAddr: 0x3EB0, symBinAddr: 0x100005004, symSize: 0x25C }
  - { offsetInCU: 0xC00E, offset: 0xC00E, size: 0x8, addend: 0x0, symName: __ZNKSt3__16vectorIxNS_9allocatorIxEEE17__annotate_deleteB7v160006Ev, symObjAddr: 0x4440, symBinAddr: 0x100005594, symSize: 0x270 }
  - { offsetInCU: 0xC108, offset: 0xC108, size: 0x8, addend: 0x0, symName: __ZNSt3__16vectorIxNS_9allocatorIxEEE22__base_destruct_at_endB7v160006EPx, symObjAddr: 0x46B0, symBinAddr: 0x100005804, symSize: 0xE8 }
  - { offsetInCU: 0xC224, offset: 0xC224, size: 0x8, addend: 0x0, symName: __ZNSt3__117__compressed_pairIPNS_6vectorIxNS_9allocatorIxEEEENS2_IS4_EEEC2B7v160006IDnNS_18__default_init_tagEEEOT_OT0_, symObjAddr: 0x5020, symBinAddr: 0x100006174, symSize: 0xB0 }
  - { offsetInCU: 0xC2A3, offset: 0xC2A3, size: 0x8, addend: 0x0, symName: __ZNSt3__16vectorINS0_IxNS_9allocatorIxEEEENS1_IS3_EEE11__vallocateB7v160006Em, symObjAddr: 0x4AD8, symBinAddr: 0x100005C2C, symSize: 0x1BC }
  - { offsetInCU: 0xC38F, offset: 0xC38F, size: 0x8, addend: 0x0, symName: __ZNSt3__16vectorINS0_IxNS_9allocatorIxEEEENS1_IS3_EEE18__construct_at_endEmRKS3_, symObjAddr: 0x4C94, symBinAddr: 0x100005DE8, symSize: 0x344 }
  - { offsetInCU: 0xC4E5, offset: 0xC4E5, size: 0x8, addend: 0x0, symName: __ZNSt3__128__exception_guard_exceptionsINS_6vectorINS1_IxNS_9allocatorIxEEEENS2_IS4_EEE16__destroy_vectorEED2B7v160006Ev, symObjAddr: 0x7434, symBinAddr: 0x100008588, symSize: 0xF4 }
  - { offsetInCU: 0xC524, offset: 0xC524, size: 0x8, addend: 0x0, symName: __ZNSt3__128__exception_guard_exceptionsINS_6vectorINS1_IxNS_9allocatorIxEEEENS2_IS4_EEE16__destroy_vectorEED1B7v160006Ev, symObjAddr: 0x4FD8, symBinAddr: 0x10000612C, symSize: 0x48 }
  - { offsetInCU: 0xC587, offset: 0xC587, size: 0x8, addend: 0x0, symName: __ZNKSt3__16vectorINS0_IxNS_9allocatorIxEEEENS1_IS3_EEE7__allocB7v160006Ev, symObjAddr: 0x54FC, symBinAddr: 0x100006650, symSize: 0x70 }
  - { offsetInCU: 0xC5BC, offset: 0xC5BC, size: 0x8, addend: 0x0, symName: __ZNSt3__16vectorINS0_IxNS_9allocatorIxEEEENS1_IS3_EEE7__allocB7v160006Ev, symObjAddr: 0x51E4, symBinAddr: 0x100006338, symSize: 0x70 }
  - { offsetInCU: 0xC5EC, offset: 0xC5EC, size: 0x8, addend: 0x0, symName: __ZNSt3__117__compressed_pairIPNS_6vectorIxNS_9allocatorIxEEEENS2_IS4_EEE5firstB7v160006Ev, symObjAddr: 0x5714, symBinAddr: 0x100006868, symSize: 0xCC }
  - { offsetInCU: 0xC630, offset: 0xC630, size: 0x8, addend: 0x0, symName: __ZNKSt3__16vectorINS0_IxNS_9allocatorIxEEEENS1_IS3_EEE14__annotate_newB7v160006Em, symObjAddr: 0x5254, symBinAddr: 0x1000063A8, symSize: 0x2A8 }
  - { offsetInCU: 0xC726, offset: 0xC726, size: 0x8, addend: 0x0, symName: __ZNKSt3__16vectorINS0_IxNS_9allocatorIxEEEENS1_IS3_EEE20__throw_length_errorB7v160006Ev, symObjAddr: 0x514C, symBinAddr: 0x1000062A0, symSize: 0x44 }
  - { offsetInCU: 0xC7DC, offset: 0xC7DC, size: 0x8, addend: 0x0, symName: __ZNSt3__16vectorINS0_IxNS_9allocatorIxEEEENS1_IS3_EEE21_ConstructTransactionC2B7v160006ERS5_m, symObjAddr: 0x5A50, symBinAddr: 0x100006BA4, symSize: 0x1A4 }
  - { offsetInCU: 0xC834, offset: 0xC834, size: 0x8, addend: 0x0, symName: __ZNSt3__117__compressed_pairIPNS_6vectorIxNS_9allocatorIxEEEENS2_IS4_EEE6secondB7v160006Ev, symObjAddr: 0x5640, symBinAddr: 0x100006794, symSize: 0xD4 }
  - { offsetInCU: 0xC877, offset: 0xC877, size: 0x8, addend: 0x0, symName: __ZNSt3__116allocator_traitsINS_9allocatorINS_6vectorIxNS1_IxEEEEEEE9constructB7v160006IS4_JRKS4_EvEEvRS5_PT_DpOT0_, symObjAddr: 0x59B4, symBinAddr: 0x100006B08, symSize: 0x54 }
  - { offsetInCU: 0xC91D, offset: 0xC91D, size: 0x8, addend: 0x0, symName: __ZNSt3__16vectorINS0_IxNS_9allocatorIxEEEENS1_IS3_EEE21_ConstructTransactionD2B7v160006Ev, symObjAddr: 0x6F90, symBinAddr: 0x1000080E4, symSize: 0x220 }
  - { offsetInCU: 0xC955, offset: 0xC955, size: 0x8, addend: 0x0, symName: __ZNSt3__16vectorINS0_IxNS_9allocatorIxEEEENS1_IS3_EEE21_ConstructTransactionD1B7v160006Ev, symObjAddr: 0x5A08, symBinAddr: 0x100006B5C, symSize: 0x48 }
  - { offsetInCU: 0xC9B4, offset: 0xC9B4, size: 0x8, addend: 0x0, symName: __ZNSt3__122__compressed_pair_elemINS_9allocatorINS_6vectorIxNS1_IxEEEEEELi1ELb1EEC2B7v160006ENS_18__default_init_tagE, symObjAddr: 0x50D0, symBinAddr: 0x100006224, symSize: 0x7C }
  - { offsetInCU: 0xCADE, offset: 0xCADE, size: 0x8, addend: 0x0, symName: __ZNKSt3__16vectorINS0_IxNS_9allocatorIxEEEENS1_IS3_EEE8capacityB7v160006Ev, symObjAddr: 0x57E0, symBinAddr: 0x100006934, symSize: 0x98 }
  - { offsetInCU: 0xCB19, offset: 0xCB19, size: 0x8, addend: 0x0, symName: __ZNKSt3__117__compressed_pairIPNS_6vectorIxNS_9allocatorIxEEEENS2_IS4_EEE6secondB7v160006Ev, symObjAddr: 0x556C, symBinAddr: 0x1000066C0, symSize: 0xD4 }
  - { offsetInCU: 0xCBA3, offset: 0xCBA3, size: 0x8, addend: 0x0, symName: __ZNKSt3__16vectorINS0_IxNS_9allocatorIxEEEENS1_IS3_EEE9__end_capB7v160006Ev, symObjAddr: 0x5878, symBinAddr: 0x1000069CC, symSize: 0x70 }
  - { offsetInCU: 0xCBD8, offset: 0xCBD8, size: 0x8, addend: 0x0, symName: __ZNKSt3__117__compressed_pairIPNS_6vectorIxNS_9allocatorIxEEEENS2_IS4_EEE5firstB7v160006Ev, symObjAddr: 0x58E8, symBinAddr: 0x100006A3C, symSize: 0xCC }
  - { offsetInCU: 0xCC9F, offset: 0xCC9F, size: 0x8, addend: 0x0, symName: __ZNSt3__16vectorIxNS_9allocatorIxEEEC2ERKS3_, symObjAddr: 0x5F98, symBinAddr: 0x1000070EC, symSize: 0x360 }
  - { offsetInCU: 0xCE52, offset: 0xCE52, size: 0x8, addend: 0x0, symName: __ZNKSt3__16vectorINS0_IxNS_9allocatorIxEEEENS1_IS3_EEE19__annotate_increaseB7v160006Em, symObjAddr: 0x5BF4, symBinAddr: 0x100006D48, symSize: 0x30C }
  - { offsetInCU: 0xCF5C, offset: 0xCF5C, size: 0x8, addend: 0x0, symName: __ZNKSt3__16vectorINS0_IxNS_9allocatorIxEEEENS1_IS3_EEE4sizeB7v160006Ev, symObjAddr: 0x5F00, symBinAddr: 0x100007054, symSize: 0x98 }
  - { offsetInCU: 0xCFE1, offset: 0xCFE1, size: 0x8, addend: 0x0, symName: __ZNSt3__117__compressed_pairIPxNS_9allocatorIxEEEC2B7v160006IDnS3_EEOT_OT0_, symObjAddr: 0x659C, symBinAddr: 0x1000076F0, symSize: 0xB0 }
  - { offsetInCU: 0xD052, offset: 0xD052, size: 0x8, addend: 0x0, symName: __ZNSt3__16vectorIxNS_9allocatorIxEEE18__construct_at_endIPxLi0EEEvT_S6_m, symObjAddr: 0x62F8, symBinAddr: 0x10000744C, symSize: 0x2A4 }
  - { offsetInCU: 0xD2B5, offset: 0xD2B5, size: 0x8, addend: 0x0, symName: __ZNSt3__128__exception_guard_exceptionsINS_29_AllocatorDestroyRangeReverseINS_9allocatorIxEEPxEEED2B7v160006Ev, symObjAddr: 0x6ACC, symBinAddr: 0x100007C20, symSize: 0xF4 }
  - { offsetInCU: 0xD2F4, offset: 0xD2F4, size: 0x8, addend: 0x0, symName: __ZNKSt3__129_AllocatorDestroyRangeReverseINS_9allocatorIxEEPxEclB7v160006Ev, symObjAddr: 0x6BC0, symBinAddr: 0x100007D14, symSize: 0x118 }
  - { offsetInCU: 0xD378, offset: 0xD378, size: 0x8, addend: 0x0, symName: __ZNKSt3__116reverse_iteratorIPxEdeB7v160006Ev, symObjAddr: 0x6ED0, symBinAddr: 0x100008024, symSize: 0xC0 }
  - { offsetInCU: 0xD3AF, offset: 0xD3AF, size: 0x8, addend: 0x0, symName: __ZNKSt3__16vectorINS0_IxNS_9allocatorIxEEEENS1_IS3_EEE17__annotate_shrinkB7v160006Em, symObjAddr: 0x71B0, symBinAddr: 0x100008304, symSize: 0x284 }
  - { offsetInCU: 0xD513, offset: 0xD513, size: 0x8, addend: 0x0, symName: __ZNKSt3__16vectorINS0_IxNS_9allocatorIxEEEENS1_IS3_EEE17__annotate_deleteB7v160006Ev, symObjAddr: 0x7768, symBinAddr: 0x1000088BC, symSize: 0x298 }
  - { offsetInCU: 0xD60D, offset: 0xD60D, size: 0x8, addend: 0x0, symName: __ZNSt3__16vectorINS0_IxNS_9allocatorIxEEEENS1_IS3_EEE22__base_destruct_at_endB7v160006EPS3_, symObjAddr: 0x7A00, symBinAddr: 0x100008B54, symSize: 0x11C }
...
