---
triple:          'arm64-apple-darwin'
binary-path:     a.out
relocations:
  - { offsetInCU: 0x3F, offset: 0x3F, size: 0x8, addend: 0x0, symName: _dx, symObjAddr: 0x11120, symBinAddr: 0x10001C000, symSize: 0x0 }
  - { offsetInCU: 0x79, offset: 0x79, size: 0x8, addend: 0x0, symName: _dy, symObjAddr: 0x11180, symBinAddr: 0x10001C060, symSize: 0x0 }
  - { offsetInCU: 0x8E, offset: 0x8E, size: 0x8, addend: 0x0, symName: _N, symObjAddr: 0x60DE0, symBinAddr: 0x1000201E0, symSize: 0x0 }
  - { offsetInCU: 0xA3, offset: 0xA3, size: 0x8, addend: 0x0, symName: _M, symObjAddr: 0x60E00, symBinAddr: 0x100020200, symSize: 0x0 }
  - { offsetInCU: 0xB8, offset: 0xB8, size: 0x8, addend: 0x0, symName: _graph, symObjAddr: 0x60E20, symBinAddr: 0x100020220, symSize: 0x0 }
  - { offsetInCU: 0x71B9, offset: 0x71B9, size: 0x8, addend: 0x0, symName: __ZNSt3__111__introsortINS_17_ClassicAlgPolicyERNS_7greaterINS_4pairIxxEEEEPS4_EEvT1_S8_T0_NS_15iterator_traitsIS8_E15difference_typeE, symObjAddr: 0x8528, symBinAddr: 0x10000BF40, symSize: 0x1808 }
  - { offsetInCU: 0x7864, offset: 0x7864, size: 0x8, addend: 0x0, symName: __ZNSt3__118__insertion_sort_3B7v160006INS_17_ClassicAlgPolicyERNS_7greaterINS_4pairIxxEEEEPS4_EEvT1_S8_T0_, symObjAddr: 0x9DDC, symBinAddr: 0x10000D7F4, symSize: 0x3DC }
  - { offsetInCU: 0x7A1A, offset: 0x7A1A, size: 0x8, addend: 0x0, symName: __ZNSt3__111__sift_downB7v160006INS_17_ClassicAlgPolicyERNS_7greaterINS_4pairIxxEEEEPS4_EEvT1_OT0_NS_15iterator_traitsIS8_E15difference_typeES8_, symObjAddr: 0xB9A8, symBinAddr: 0x10000F3C0, symSize: 0x57C }
  - { offsetInCU: 0x7BFD, offset: 0x7BFD, size: 0x8, addend: 0x0, symName: __ZNSt3__117__floyd_sift_downB7v160006INS_17_ClassicAlgPolicyERNS_7greaterINS_4pairIxxEEEEPS4_EET1_S8_OT0_NS_15iterator_traitsIS8_E15difference_typeE, symObjAddr: 0xC1EC, symBinAddr: 0x10000FC04, symSize: 0x27C }
  - { offsetInCU: 0x7CFE, offset: 0x7CFE, size: 0x8, addend: 0x0, symName: __ZNSt3__127__insertion_sort_incompleteIRNS_7greaterINS_4pairIxxEEEEPS3_EEbT0_S7_T_, symObjAddr: 0xA62C, symBinAddr: 0x10000E044, symSize: 0x938 }
  - { offsetInCU: 0x8021, offset: 0x8021, size: 0x8, addend: 0x0, symName: __ZNSt3__113__fill_n_trueB7v160006INS_6vectorIbNS_9allocatorIbEEEEEEvNS_14__bit_iteratorIT_Lb0EXLi0EEEENS6_9size_typeE, symObjAddr: 0xDC4C, symBinAddr: 0x100011664, symSize: 0x698 }
  - { offsetInCU: 0x811C, offset: 0x811C, size: 0x8, addend: 0x0, symName: __ZNSt3__114__fill_n_falseB7v160006INS_6vectorIbNS_9allocatorIbEEEEEEvNS_14__bit_iteratorIT_Lb0EXLi0EEEENS6_9size_typeE, symObjAddr: 0xE2E4, symBinAddr: 0x100011CFC, symSize: 0x694 }
  - { offsetInCU: 0x9A23, offset: 0x9A23, size: 0x8, addend: 0x0, symName: __ZNSt3__111__sort_implB7v160006INS_17_ClassicAlgPolicyENS_11__wrap_iterIPNS_4pairIxxEEEENS_7greaterIS4_EEEEvT0_S9_RT1_, symObjAddr: 0x8508, symBinAddr: 0x10000BF20, symSize: 0x20 }
  - { offsetInCU: 0x9A67, offset: 0x9A67, size: 0x8, addend: 0x0, symName: __ZNSt3__111__sort_implB7v160006INS_17_ClassicAlgPolicyENS_11__wrap_iterIPNS_4pairIxxEEEENS_7greaterIS4_EEEEvT0_S9_RT1_, symObjAddr: 0x8508, symBinAddr: 0x10000BF20, symSize: 0x20 }
  - { offsetInCU: 0x9A90, offset: 0x9A90, size: 0x8, addend: 0x0, symName: __ZNSt3__111__sort_implB7v160006INS_17_ClassicAlgPolicyENS_11__wrap_iterIPNS_4pairIxxEEEENS_7greaterIS4_EEEEvT0_S9_RT1_, symObjAddr: 0x8508, symBinAddr: 0x10000BF20, symSize: 0x20 }
  - { offsetInCU: 0x9B19, offset: 0x9B19, size: 0x8, addend: 0x0, symName: __ZNSt3__14endlB7v160006IcNS_11char_traitsIcEEEERNS_13basic_ostreamIT_T0_EES7_, symObjAddr: 0x1C38, symBinAddr: 0x100005650, symSize: 0x21C }
  - { offsetInCU: 0x9B9D, offset: 0x9B9D, size: 0x8, addend: 0x0, symName: __ZNSt3__1eqB7v160006IPxEEbRKNS_11__wrap_iterIT_EES6_, symObjAddr: 0x21B4, symBinAddr: 0x100005BCC, symSize: 0x58 }
  - { offsetInCU: 0x9CAF, offset: 0x9CAF, size: 0x8, addend: 0x0, symName: __ZNSt3__119__allocate_at_leastB7v160006INS_9allocatorIxEEEENS_19__allocation_resultINS_16allocator_traitsIT_E7pointerEEERS5_m, symObjAddr: 0x3874, symBinAddr: 0x10000728C, symSize: 0x44 }
  - { offsetInCU: 0x9D4E, offset: 0x9D4E, size: 0x8, addend: 0x0, symName: __ZNSt3__120__throw_length_errorB7v160006EPKc, symObjAddr: 0x3CEC, symBinAddr: 0x100007704, symSize: 0x78 }
  - { offsetInCU: 0xA2CA, offset: 0xA2CA, size: 0x8, addend: 0x0, symName: __ZNSt3__119__allocate_at_leastB7v160006INS_9allocatorINS_4pairIxxEEEEEENS_19__allocation_resultINS_16allocator_traitsIT_E7pointerEEERS7_m, symObjAddr: 0x6D34, symBinAddr: 0x10000A74C, symSize: 0x44 }
  - { offsetInCU: 0xA690, offset: 0xA690, size: 0x8, addend: 0x0, symName: __ZNSt3__17__sort5IRNS_7greaterINS_4pairIxxEEEEPS3_EEjT0_S7_S7_S7_S7_T_, symObjAddr: 0xC7D4, symBinAddr: 0x1000101EC, symSize: 0x4B0 }
  - { offsetInCU: 0xA8C0, offset: 0xA8C0, size: 0x8, addend: 0x0, symName: __ZNSt3__17__sort3B7v160006INS_17_ClassicAlgPolicyERNS_7greaterINS_4pairIxxEEEEPS4_EEjT1_S8_S8_T0_, symObjAddr: 0xA1B8, symBinAddr: 0x10000DBD0, symSize: 0x474 }
  - { offsetInCU: 0xAACE, offset: 0xAACE, size: 0x8, addend: 0x0, symName: __ZNSt3__1gtB7v160006IxxEEbRKNS_4pairIT_T0_EES6_, symObjAddr: 0xAF64, symBinAddr: 0x10000E97C, symSize: 0xB4 }
  - { offsetInCU: 0xAB36, offset: 0xAB36, size: 0x8, addend: 0x0, symName: __ZNSt3__17__sort4B7v160006INS_17_ClassicAlgPolicyERNS_7greaterINS_4pairIxxEEEEPS4_EEjT1_S8_S8_S8_T0_, symObjAddr: 0xB17C, symBinAddr: 0x10000EB94, symSize: 0x3D0 }
  - { offsetInCU: 0xACEC, offset: 0xACEC, size: 0x8, addend: 0x0, symName: __ZNSt3__119__partial_sort_implB7v160006INS_17_ClassicAlgPolicyERNS_7greaterINS_4pairIxxEEEEPS4_S7_EET1_S8_S8_T2_OT0_, symObjAddr: 0xB54C, symBinAddr: 0x10000EF64, symSize: 0x45C }
  - { offsetInCU: 0xB0DA, offset: 0xB0DA, size: 0x8, addend: 0x0, symName: __ZNSt3__110__pop_heapB7v160006INS_17_ClassicAlgPolicyENS_7greaterINS_4pairIxxEEEEPS4_EEvT1_S7_RT0_NS_15iterator_traitsIS7_E15difference_typeE, symObjAddr: 0xBF24, symBinAddr: 0x10000F93C, symSize: 0x2C8 }
  - { offsetInCU: 0xB22F, offset: 0xB22F, size: 0x8, addend: 0x0, symName: __ZNSt3__19__sift_upB7v160006INS_17_ClassicAlgPolicyERNS_7greaterINS_4pairIxxEEEEPS4_EEvT1_S8_OT0_NS_15iterator_traitsIS8_E15difference_typeE, symObjAddr: 0xC468, symBinAddr: 0x10000FE80, symSize: 0x36C }
  - { offsetInCU: 0xB386, offset: 0xB386, size: 0x8, addend: 0x0, symName: __ZNSt3__119__allocate_at_leastB7v160006INS_9allocatorImEEEENS_19__allocation_resultINS_16allocator_traitsIT_E7pointerEEERS5_m, symObjAddr: 0xD580, symBinAddr: 0x100010F98, symSize: 0x44 }
  - { offsetInCU: 0xB424, offset: 0xB424, size: 0x8, addend: 0x0, symName: __ZNSt3__16fill_nB7v160006INS_6vectorIbNS_9allocatorIbEEEEEEvNS_14__bit_iteratorIT_Lb0EXLi0EEEENS6_9size_typeEb, symObjAddr: 0xD988, symBinAddr: 0x1000113A0, symSize: 0x2C4 }
  - { offsetInCU: 0xBA9A, offset: 0xBA9A, size: 0x8, addend: 0x0, symName: __ZNSt3__19use_facetB7v160006INS_5ctypeIcEEEERKT_RKNS_6localeE, symObjAddr: 0xEE4C, symBinAddr: 0x100012864, symSize: 0x100 }
  - { offsetInCU: 0xBF3C, offset: 0xBF3C, size: 0x8, addend: 0x0, symName: __ZSt28__throw_bad_array_new_lengthB7v160006v, symObjAddr: 0x3E10, symBinAddr: 0x100007828, symSize: 0x5C }
  - { offsetInCU: 0xC1A6, offset: 0xC1A6, size: 0x8, addend: 0x0, symName: _graph_rev, symObjAddr: 0x2EAE20, symBinAddr: 0x1002AA220, symSize: 0x0 }
  - { offsetInCU: 0xC1BB, offset: 0xC1BB, size: 0x8, addend: 0x0, symName: _reached, symObjAddr: 0x574E20, symBinAddr: 0x100534220, symSize: 0x0 }
  - { offsetInCU: 0xC1D0, offset: 0xC1D0, size: 0x8, addend: 0x0, symName: _reached1, symObjAddr: 0x574E60, symBinAddr: 0x100534260, symSize: 0x0 }
  - { offsetInCU: 0xC1E5, offset: 0xC1E5, size: 0x8, addend: 0x0, symName: _cnt, symObjAddr: 0x574EA0, symBinAddr: 0x1005342A0, symSize: 0x0 }
  - { offsetInCU: 0xC1F8, offset: 0xC1F8, size: 0x8, addend: 0x0, symName: _.str, symObjAddr: 0x15E80, symBinAddr: 0x100015C40, symSize: 0x0 }
  - { offsetInCU: 0xC71C, offset: 0xC71C, size: 0x8, addend: 0x0, symName: __ZNSt3__16vectorIxNS_9allocatorIxEEE26__swap_out_circular_bufferERNS_14__split_bufferIxRS2_EE, symObjAddr: 0x4FB8, symBinAddr: 0x1000089D0, symSize: 0x440 }
  - { offsetInCU: 0xECF4, offset: 0xECF4, size: 0x8, addend: 0x0, symName: __ZNSt3__16vectorIxNS_9allocatorIxEEED1B7v160006Ev, symObjAddr: 0x0, symBinAddr: 0x100003A18, symSize: 0x1B0 }
  - { offsetInCU: 0xEDD0, offset: 0xEDD0, size: 0x8, addend: 0x0, symName: __ZNSt3__16vectorIxNS_9allocatorIxEEE16__destroy_vectorclB7v160006Ev, symObjAddr: 0x26A4, symBinAddr: 0x1000060BC, symSize: 0x240 }
  - { offsetInCU: 0xF16D, offset: 0xF16D, size: 0x8, addend: 0x0, symName: _main, symObjAddr: 0x1B0, symBinAddr: 0x100003BC8, symSize: 0xD00 }
  - { offsetInCU: 0xF53B, offset: 0xF53B, size: 0x8, addend: 0x0, symName: __ZNSt3__16vectorIxNS_9allocatorIxEEE9push_backB7v160006ERKx, symObjAddr: 0xEB0, symBinAddr: 0x1000048C8, symSize: 0xB0 }
  - { offsetInCU: 0xF5B0, offset: 0xF5B0, size: 0x8, addend: 0x0, symName: '__ZZ4mainENK3$_0clIS_EEvT_xx', symObjAddr: 0xF60, symBinAddr: 0x100004978, symSize: 0x600 }
  - { offsetInCU: 0xF764, offset: 0xF764, size: 0x8, addend: 0x0, symName: __ZNSt3__16vectorINS_4pairIxxEENS_9allocatorIS2_EEEC2Em, symObjAddr: 0x6388, symBinAddr: 0x100009DA0, symSize: 0x338 }
  - { offsetInCU: 0xF8BC, offset: 0xF8BC, size: 0x8, addend: 0x0, symName: __ZNSt3__14pairIxxEaSB7v160006EOS1_, symObjAddr: 0x1560, symBinAddr: 0x100004F78, symSize: 0xF8 }
  - { offsetInCU: 0xF8F3, offset: 0xF8F3, size: 0x8, addend: 0x0, symName: __ZNSt3__16vectorIbNS_9allocatorIbEEEC2EmRKb, symObjAddr: 0xCC84, symBinAddr: 0x10001069C, symSize: 0x254 }
  - { offsetInCU: 0xF9BB, offset: 0xF9BB, size: 0x8, addend: 0x0, symName: '__ZZ4mainENK3$_1clIS_EEvT_xx', symObjAddr: 0x1658, symBinAddr: 0x100005070, symSize: 0x5E0 }
  - { offsetInCU: 0xFBA2, offset: 0xFBA2, size: 0x8, addend: 0x0, symName: __ZNSt3__16vectorIbNS_9allocatorIbEEED1B7v160006Ev, symObjAddr: 0x1E54, symBinAddr: 0x10000586C, symSize: 0x1B0 }
  - { offsetInCU: 0xFC0C, offset: 0xFC0C, size: 0x8, addend: 0x0, symName: __ZNSt3__16vectorINS_4pairIxxEENS_9allocatorIS2_EEED1B7v160006Ev, symObjAddr: 0x2004, symBinAddr: 0x100005A1C, symSize: 0x1B0 }
  - { offsetInCU: 0xFC76, offset: 0xFC76, size: 0x8, addend: 0x0, symName: __ZNSt3__16vectorIxNS_9allocatorIxEEE9__end_capB7v160006Ev, symObjAddr: 0x38B8, symBinAddr: 0x1000072D0, symSize: 0x70 }
  - { offsetInCU: 0xFCA6, offset: 0xFCA6, size: 0x8, addend: 0x0, symName: __ZNSt3__16vectorIxNS_9allocatorIxEEE22__construct_one_at_endB7v160006IJRKxEEEvDpOT_, symObjAddr: 0x4908, symBinAddr: 0x100008320, symSize: 0x2F4 }
  - { offsetInCU: 0xFDF9, offset: 0xFDF9, size: 0x8, addend: 0x0, symName: __ZNSt3__16vectorIxNS_9allocatorIxEEE21__push_back_slow_pathIRKxEEvOT_, symObjAddr: 0x4BFC, symBinAddr: 0x100008614, symSize: 0x320 }
  - { offsetInCU: 0x1002A, offset: 0x1002A, size: 0x8, addend: 0x0, symName: __ZNSt3__16vectorIbNS_9allocatorIbEEE10__make_refB7v160006Em, symObjAddr: 0x24A0, symBinAddr: 0x100005EB8, symSize: 0xCC }
  - { offsetInCU: 0x10061, offset: 0x10061, size: 0x8, addend: 0x0, symName: __ZNKSt3__115__bit_referenceINS_6vectorIbNS_9allocatorIbEEEELb1EEcvbB7v160006Ev, symObjAddr: 0x220C, symBinAddr: 0x100005C24, symSize: 0xE4 }
  - { offsetInCU: 0x10088, offset: 0x10088, size: 0x8, addend: 0x0, symName: __ZNSt3__115__bit_referenceINS_6vectorIbNS_9allocatorIbEEEELb1EEaSB7v160006Eb, symObjAddr: 0x22F0, symBinAddr: 0x100005D08, symSize: 0x1B0 }
  - { offsetInCU: 0x100BE, offset: 0x100BE, size: 0x8, addend: 0x0, symName: __ZNKSt3__19basic_iosIcNS_11char_traitsIcEEE5widenB7v160006Ec, symObjAddr: 0xEB0C, symBinAddr: 0x100012524, symSize: 0x340 }
  - { offsetInCU: 0x101AE, offset: 0x101AE, size: 0x8, addend: 0x0, symName: __ZNSt3__16vectorIbNS_9allocatorIbEEE16__destroy_vectorclB7v160006Ev, symObjAddr: 0xE978, symBinAddr: 0x100012390, symSize: 0x194 }
  - { offsetInCU: 0x10309, offset: 0x10309, size: 0x8, addend: 0x0, symName: __ZNSt3__16vectorINS_4pairIxxEENS_9allocatorIS2_EEE16__destroy_vectorclB7v160006Ev, symObjAddr: 0x7F70, symBinAddr: 0x10000B988, symSize: 0x240 }
  - { offsetInCU: 0x10488, offset: 0x10488, size: 0x8, addend: 0x0, symName: __ZNSt3__117__compressed_pairIPxNS_9allocatorIxEEEC2B7v160006IDnNS_18__default_init_tagEEEOT_OT0_, symObjAddr: 0x2578, symBinAddr: 0x100005F90, symSize: 0xB0 }
  - { offsetInCU: 0x10507, offset: 0x10507, size: 0x8, addend: 0x0, symName: __ZNSt3__122__compressed_pair_elemINS_9allocatorIxEELi1ELb1EEC2B7v160006ENS_18__default_init_tagE, symObjAddr: 0x2628, symBinAddr: 0x100006040, symSize: 0x7C }
  - { offsetInCU: 0x1062A, offset: 0x1062A, size: 0x8, addend: 0x0, symName: __ZNKSt3__16vectorIxNS_9allocatorIxEEE17__annotate_deleteB7v160006Ev, symObjAddr: 0x28E4, symBinAddr: 0x1000062FC, symSize: 0x270 }
  - { offsetInCU: 0x10724, offset: 0x10724, size: 0x8, addend: 0x0, symName: __ZNSt3__16vectorIxNS_9allocatorIxEEE22__base_destruct_at_endB7v160006EPx, symObjAddr: 0x2CDC, symBinAddr: 0x1000066F4, symSize: 0xE8 }
  - { offsetInCU: 0x1077F, offset: 0x1077F, size: 0x8, addend: 0x0, symName: __ZNSt3__16vectorIxNS_9allocatorIxEEE7__allocB7v160006Ev, symObjAddr: 0x2B54, symBinAddr: 0x10000656C, symSize: 0x70 }
  - { offsetInCU: 0x107AF, offset: 0x107AF, size: 0x8, addend: 0x0, symName: __ZNKSt3__16vectorIxNS_9allocatorIxEEE8capacityB7v160006Ev, symObjAddr: 0x2BC4, symBinAddr: 0x1000065DC, symSize: 0x8C }
  - { offsetInCU: 0x1084C, offset: 0x1084C, size: 0x8, addend: 0x0, symName: __ZNKSt3__16vectorIxNS_9allocatorIxEEE4sizeB7v160006Ev, symObjAddr: 0x2C50, symBinAddr: 0x100006668, symSize: 0x8C }
  - { offsetInCU: 0x10873, offset: 0x10873, size: 0x8, addend: 0x0, symName: __ZNSt3__117__compressed_pairIPxNS_9allocatorIxEEE6secondB7v160006Ev, symObjAddr: 0x2DC4, symBinAddr: 0x1000067DC, symSize: 0xD4 }
  - { offsetInCU: 0x108B6, offset: 0x108B6, size: 0x8, addend: 0x0, symName: __ZNKSt3__16vectorIxNS_9allocatorIxEEE9__end_capB7v160006Ev, symObjAddr: 0x2E98, symBinAddr: 0x1000068B0, symSize: 0x70 }
  - { offsetInCU: 0x10901, offset: 0x10901, size: 0x8, addend: 0x0, symName: __ZNKSt3__117__compressed_pairIPxNS_9allocatorIxEEE5firstB7v160006Ev, symObjAddr: 0x2F08, symBinAddr: 0x100006920, symSize: 0xCC }
  - { offsetInCU: 0x10A23, offset: 0x10A23, size: 0x8, addend: 0x0, symName: __ZNSt3__16vectorIxNS_9allocatorIxEEEC2EmRKx, symObjAddr: 0x2FD4, symBinAddr: 0x1000069EC, symSize: 0x340 }
  - { offsetInCU: 0x10B8F, offset: 0x10B8F, size: 0x8, addend: 0x0, symName: __ZNSt3__16vectorIxNS_9allocatorIxEEE11__vallocateB7v160006Em, symObjAddr: 0x3314, symBinAddr: 0x100006D2C, symSize: 0x1A0 }
  - { offsetInCU: 0x10C7A, offset: 0x10C7A, size: 0x8, addend: 0x0, symName: __ZNSt3__16vectorIxNS_9allocatorIxEEE18__construct_at_endEmRKx, symObjAddr: 0x34B4, symBinAddr: 0x100006ECC, symSize: 0x334 }
  - { offsetInCU: 0x10DDE, offset: 0x10DDE, size: 0x8, addend: 0x0, symName: __ZNSt3__128__exception_guard_exceptionsINS_6vectorIxNS_9allocatorIxEEE16__destroy_vectorEED2B7v160006Ev, symObjAddr: 0x4814, symBinAddr: 0x10000822C, symSize: 0xF4 }
  - { offsetInCU: 0x10E1D, offset: 0x10E1D, size: 0x8, addend: 0x0, symName: __ZNSt3__128__exception_guard_exceptionsINS_6vectorIxNS_9allocatorIxEEE16__destroy_vectorEED1B7v160006Ev, symObjAddr: 0x37E8, symBinAddr: 0x100007200, symSize: 0x48 }
  - { offsetInCU: 0x10E7B, offset: 0x10E7B, size: 0x8, addend: 0x0, symName: __ZNKSt3__16vectorIxNS_9allocatorIxEEE7__allocB7v160006Ev, symObjAddr: 0x3BA8, symBinAddr: 0x1000075C0, symSize: 0x70 }
  - { offsetInCU: 0x10EB0, offset: 0x10EB0, size: 0x8, addend: 0x0, symName: __ZNSt3__117__compressed_pairIPxNS_9allocatorIxEEE5firstB7v160006Ev, symObjAddr: 0x3E6C, symBinAddr: 0x100007884, symSize: 0xCC }
  - { offsetInCU: 0x10EF4, offset: 0x10EF4, size: 0x8, addend: 0x0, symName: __ZNKSt3__16vectorIxNS_9allocatorIxEEE14__annotate_newB7v160006Em, symObjAddr: 0x3928, symBinAddr: 0x100007340, symSize: 0x280 }
  - { offsetInCU: 0x10FEA, offset: 0x10FEA, size: 0x8, addend: 0x0, symName: __ZNKSt3__16vectorIxNS_9allocatorIxEEE20__throw_length_errorB7v160006Ev, symObjAddr: 0x3830, symBinAddr: 0x100007248, symSize: 0x44 }
  - { offsetInCU: 0x11125, offset: 0x11125, size: 0x8, addend: 0x0, symName: __ZNSt3__16vectorIxNS_9allocatorIxEEE21_ConstructTransactionC2B7v160006ERS3_m, symObjAddr: 0x3F38, symBinAddr: 0x100007950, symSize: 0x194 }
  - { offsetInCU: 0x1117D, offset: 0x1117D, size: 0x8, addend: 0x0, symName: __ZNSt3__16vectorIxNS_9allocatorIxEEE21_ConstructTransactionD2B7v160006Ev, symObjAddr: 0x43A4, symBinAddr: 0x100007DBC, symSize: 0x214 }
  - { offsetInCU: 0x111D6, offset: 0x111D6, size: 0x8, addend: 0x0, symName: __ZNKSt3__117__compressed_pairIPxNS_9allocatorIxEEE6secondB7v160006Ev, symObjAddr: 0x3C18, symBinAddr: 0x100007630, symSize: 0xD4 }
  - { offsetInCU: 0x11235, offset: 0x11235, size: 0x8, addend: 0x0, symName: __ZNSt12length_errorC1B7v160006EPKc, symObjAddr: 0x3D64, symBinAddr: 0x10000777C, symSize: 0xAC }
  - { offsetInCU: 0x112CF, offset: 0x112CF, size: 0x8, addend: 0x0, symName: __ZNKSt3__16vectorIxNS_9allocatorIxEEE19__annotate_increaseB7v160006Em, symObjAddr: 0x40CC, symBinAddr: 0x100007AE4, symSize: 0x2D8 }
  - { offsetInCU: 0x113D9, offset: 0x113D9, size: 0x8, addend: 0x0, symName: __ZNKSt3__16vectorIxNS_9allocatorIxEEE17__annotate_shrinkB7v160006Em, symObjAddr: 0x45B8, symBinAddr: 0x100007FD0, symSize: 0x25C }
  - { offsetInCU: 0x1152E, offset: 0x1152E, size: 0x8, addend: 0x0, symName: __ZNKSt3__16vectorIxNS_9allocatorIxEEE11__recommendB7v160006Em, symObjAddr: 0x4F1C, symBinAddr: 0x100008934, symSize: 0x9C }
  - { offsetInCU: 0x115DA, offset: 0x115DA, size: 0x8, addend: 0x0, symName: __ZNSt3__114__split_bufferIxRNS_9allocatorIxEEEC2EmmS3_, symObjAddr: 0x5440, symBinAddr: 0x100008E58, symSize: 0x35C }
  - { offsetInCU: 0x116E0, offset: 0x116E0, size: 0x8, addend: 0x0, symName: __ZNSt3__114__split_bufferIxRNS_9allocatorIxEEED2Ev, symObjAddr: 0x5F20, symBinAddr: 0x100009938, symSize: 0xF4 }
  - { offsetInCU: 0x117EF, offset: 0x117EF, size: 0x8, addend: 0x0, symName: __ZNSt3__114__split_bufferIxRNS_9allocatorIxEEED1Ev, symObjAddr: 0x53F8, symBinAddr: 0x100008E10, symSize: 0x48 }
  - { offsetInCU: 0x1185F, offset: 0x1185F, size: 0x8, addend: 0x0, symName: __ZNKSt3__111__move_loopINS_17_ClassicAlgPolicyEEclB7v160006INS_16reverse_iteratorIPxEES6_S6_EENS_4pairIT_T1_EES8_T0_S9_, symObjAddr: 0x5AD4, symBinAddr: 0x1000094EC, symSize: 0x38C }
  - { offsetInCU: 0x119CE, offset: 0x119CE, size: 0x8, addend: 0x0, symName: __ZNSt3__117__compressed_pairIPxRNS_9allocatorIxEEE5firstB7v160006Ev, symObjAddr: 0x5A08, symBinAddr: 0x100009420, symSize: 0xCC }
  - { offsetInCU: 0x11A54, offset: 0x11A54, size: 0x8, addend: 0x0, symName: __ZNSt3__117__compressed_pairIPxRNS_9allocatorIxEEEC2B7v160006IDnS4_EEOT_OT0_, symObjAddr: 0x580C, symBinAddr: 0x100009224, symSize: 0xFC }
  - { offsetInCU: 0x11AE4, offset: 0x11AE4, size: 0x8, addend: 0x0, symName: __ZNSt3__114__split_bufferIxRNS_9allocatorIxEEE7__allocB7v160006Ev, symObjAddr: 0x579C, symBinAddr: 0x1000091B4, symSize: 0x70 }
  - { offsetInCU: 0x11B14, offset: 0x11B14, size: 0x8, addend: 0x0, symName: __ZNSt3__117__compressed_pairIPxRNS_9allocatorIxEEE6secondB7v160006Ev, symObjAddr: 0x5908, symBinAddr: 0x100009320, symSize: 0x100 }
  - { offsetInCU: 0x11C92, offset: 0x11C92, size: 0x8, addend: 0x0, symName: __ZNKSt3__116reverse_iteratorIPxEdeB7v160006Ev, symObjAddr: 0x5E60, symBinAddr: 0x100009878, symSize: 0xC0 }
  - { offsetInCU: 0x11CDE, offset: 0x11CDE, size: 0x8, addend: 0x0, symName: __ZNSt3__114__split_bufferIxRNS_9allocatorIxEEE5clearB7v160006Ev, symObjAddr: 0x6014, symBinAddr: 0x100009A2C, symSize: 0xAC }
  - { offsetInCU: 0x11D32, offset: 0x11D32, size: 0x8, addend: 0x0, symName: __ZNKSt3__114__split_bufferIxRNS_9allocatorIxEEE8capacityB7v160006Ev, symObjAddr: 0x60C0, symBinAddr: 0x100009AD8, symSize: 0x8C }
  - { offsetInCU: 0x11D8E, offset: 0x11D8E, size: 0x8, addend: 0x0, symName: __ZNSt3__114__split_bufferIxRNS_9allocatorIxEEE17__destruct_at_endB7v160006EPxNS_17integral_constantIbLb0EEE, symObjAddr: 0x614C, symBinAddr: 0x100009B64, symSize: 0x100 }
  - { offsetInCU: 0x11DE2, offset: 0x11DE2, size: 0x8, addend: 0x0, symName: __ZNKSt3__114__split_bufferIxRNS_9allocatorIxEEE9__end_capB7v160006Ev, symObjAddr: 0x624C, symBinAddr: 0x100009C64, symSize: 0x70 }
  - { offsetInCU: 0x11E17, offset: 0x11E17, size: 0x8, addend: 0x0, symName: __ZNKSt3__117__compressed_pairIPxRNS_9allocatorIxEEE5firstB7v160006Ev, symObjAddr: 0x62BC, symBinAddr: 0x100009CD4, symSize: 0xCC }
  - { offsetInCU: 0x11F1D, offset: 0x11F1D, size: 0x8, addend: 0x0, symName: __ZNSt3__117__compressed_pairIPNS_4pairIxxEENS_9allocatorIS2_EEEC2B7v160006IDnNS_18__default_init_tagEEEOT_OT0_, symObjAddr: 0x6BC4, symBinAddr: 0x10000A5DC, symSize: 0xB0 }
  - { offsetInCU: 0x11F9C, offset: 0x11F9C, size: 0x8, addend: 0x0, symName: __ZNSt3__16vectorINS_4pairIxxEENS_9allocatorIS2_EEE11__vallocateB7v160006Em, symObjAddr: 0x66C0, symBinAddr: 0x10000A0D8, symSize: 0x1A0 }
  - { offsetInCU: 0x12087, offset: 0x12087, size: 0x8, addend: 0x0, symName: __ZNSt3__16vectorINS_4pairIxxEENS_9allocatorIS2_EEE18__construct_at_endEm, symObjAddr: 0x6860, symBinAddr: 0x10000A278, symSize: 0x31C }
  - { offsetInCU: 0x121EF, offset: 0x121EF, size: 0x8, addend: 0x0, symName: __ZNSt3__128__exception_guard_exceptionsINS_6vectorINS_4pairIxxEENS_9allocatorIS3_EEE16__destroy_vectorEED2B7v160006Ev, symObjAddr: 0x7E7C, symBinAddr: 0x10000B894, symSize: 0xF4 }
  - { offsetInCU: 0x1222E, offset: 0x1222E, size: 0x8, addend: 0x0, symName: __ZNSt3__128__exception_guard_exceptionsINS_6vectorINS_4pairIxxEENS_9allocatorIS3_EEE16__destroy_vectorEED1B7v160006Ev, symObjAddr: 0x6B7C, symBinAddr: 0x10000A594, symSize: 0x48 }
  - { offsetInCU: 0x12292, offset: 0x12292, size: 0x8, addend: 0x0, symName: __ZNKSt3__16vectorINS_4pairIxxEENS_9allocatorIS2_EEE7__allocB7v160006Ev, symObjAddr: 0x7068, symBinAddr: 0x10000AA80, symSize: 0x70 }
  - { offsetInCU: 0x122C7, offset: 0x122C7, size: 0x8, addend: 0x0, symName: __ZNSt3__16vectorINS_4pairIxxEENS_9allocatorIS2_EEE7__allocB7v160006Ev, symObjAddr: 0x6D78, symBinAddr: 0x10000A790, symSize: 0x70 }
  - { offsetInCU: 0x122F7, offset: 0x122F7, size: 0x8, addend: 0x0, symName: __ZNSt3__117__compressed_pairIPNS_4pairIxxEENS_9allocatorIS2_EEE5firstB7v160006Ev, symObjAddr: 0x7280, symBinAddr: 0x10000AC98, symSize: 0xCC }
  - { offsetInCU: 0x1233B, offset: 0x1233B, size: 0x8, addend: 0x0, symName: __ZNKSt3__16vectorINS_4pairIxxEENS_9allocatorIS2_EEE14__annotate_newB7v160006Em, symObjAddr: 0x6DE8, symBinAddr: 0x10000A800, symSize: 0x280 }
  - { offsetInCU: 0x12431, offset: 0x12431, size: 0x8, addend: 0x0, symName: __ZNKSt3__16vectorINS_4pairIxxEENS_9allocatorIS2_EEE20__throw_length_errorB7v160006Ev, symObjAddr: 0x6CF0, symBinAddr: 0x10000A708, symSize: 0x44 }
  - { offsetInCU: 0x125A3, offset: 0x125A3, size: 0x8, addend: 0x0, symName: __ZNSt3__16vectorINS_4pairIxxEENS_9allocatorIS2_EEE21_ConstructTransactionC2B7v160006ERS5_m, symObjAddr: 0x7514, symBinAddr: 0x10000AF2C, symSize: 0x194 }
  - { offsetInCU: 0x125FB, offset: 0x125FB, size: 0x8, addend: 0x0, symName: __ZNSt3__117__compressed_pairIPNS_4pairIxxEENS_9allocatorIS2_EEE6secondB7v160006Ev, symObjAddr: 0x71AC, symBinAddr: 0x10000ABC4, symSize: 0xD4 }
  - { offsetInCU: 0x1263E, offset: 0x1263E, size: 0x8, addend: 0x0, symName: __ZNSt3__16vectorINS_4pairIxxEENS_9allocatorIS2_EEE21_ConstructTransactionD2B7v160006Ev, symObjAddr: 0x7A0C, symBinAddr: 0x10000B424, symSize: 0x214 }
  - { offsetInCU: 0x126A5, offset: 0x126A5, size: 0x8, addend: 0x0, symName: __ZNSt3__122__compressed_pair_elemINS_9allocatorINS_4pairIxxEEEELi1ELb1EEC2B7v160006ENS_18__default_init_tagE, symObjAddr: 0x6C74, symBinAddr: 0x10000A68C, symSize: 0x7C }
  - { offsetInCU: 0x127CB, offset: 0x127CB, size: 0x8, addend: 0x0, symName: __ZNKSt3__16vectorINS_4pairIxxEENS_9allocatorIS2_EEE8capacityB7v160006Ev, symObjAddr: 0x734C, symBinAddr: 0x10000AD64, symSize: 0x8C }
  - { offsetInCU: 0x12806, offset: 0x12806, size: 0x8, addend: 0x0, symName: __ZNKSt3__117__compressed_pairIPNS_4pairIxxEENS_9allocatorIS2_EEE6secondB7v160006Ev, symObjAddr: 0x70D8, symBinAddr: 0x10000AAF0, symSize: 0xD4 }
  - { offsetInCU: 0x12891, offset: 0x12891, size: 0x8, addend: 0x0, symName: __ZNKSt3__16vectorINS_4pairIxxEENS_9allocatorIS2_EEE9__end_capB7v160006Ev, symObjAddr: 0x73D8, symBinAddr: 0x10000ADF0, symSize: 0x70 }
  - { offsetInCU: 0x128C6, offset: 0x128C6, size: 0x8, addend: 0x0, symName: __ZNKSt3__117__compressed_pairIPNS_4pairIxxEENS_9allocatorIS2_EEE5firstB7v160006Ev, symObjAddr: 0x7448, symBinAddr: 0x10000AE60, symSize: 0xCC }
  - { offsetInCU: 0x12926, offset: 0x12926, size: 0x8, addend: 0x0, symName: __ZNKSt3__16vectorINS_4pairIxxEENS_9allocatorIS2_EEE19__annotate_increaseB7v160006Em, symObjAddr: 0x76A8, symBinAddr: 0x10000B0C0, symSize: 0x2D8 }
  - { offsetInCU: 0x12A30, offset: 0x12A30, size: 0x8, addend: 0x0, symName: __ZNKSt3__16vectorINS_4pairIxxEENS_9allocatorIS2_EEE4sizeB7v160006Ev, symObjAddr: 0x7980, symBinAddr: 0x10000B398, symSize: 0x8C }
  - { offsetInCU: 0x12A57, offset: 0x12A57, size: 0x8, addend: 0x0, symName: __ZNKSt3__16vectorINS_4pairIxxEENS_9allocatorIS2_EEE17__annotate_shrinkB7v160006Em, symObjAddr: 0x7C20, symBinAddr: 0x10000B638, symSize: 0x25C }
  - { offsetInCU: 0x12BBB, offset: 0x12BBB, size: 0x8, addend: 0x0, symName: __ZNKSt3__16vectorINS_4pairIxxEENS_9allocatorIS2_EEE17__annotate_deleteB7v160006Ev, symObjAddr: 0x81B0, symBinAddr: 0x10000BBC8, symSize: 0x270 }
  - { offsetInCU: 0x12CB5, offset: 0x12CB5, size: 0x8, addend: 0x0, symName: __ZNSt3__16vectorINS_4pairIxxEENS_9allocatorIS2_EEE22__base_destruct_at_endB7v160006EPS2_, symObjAddr: 0x8420, symBinAddr: 0x10000BE38, symSize: 0xE8 }
  - { offsetInCU: 0x12D4A, offset: 0x12D4A, size: 0x8, addend: 0x0, symName: __ZNSt3__18_IterOpsINS_17_ClassicAlgPolicyEE9iter_swapB7v160006IRPNS_4pairIxxEES7_EEvOT_OT0_, symObjAddr: 0x9D30, symBinAddr: 0x10000D748, symSize: 0xAC }
  - { offsetInCU: 0x12DE7, offset: 0x12DE7, size: 0x8, addend: 0x0, symName: __ZNSt3__14pairIxxE4swapB7v160006ERS1_, symObjAddr: 0xB018, symBinAddr: 0x10000EA30, symSize: 0x164 }
  - { offsetInCU: 0x12ED6, offset: 0x12ED6, size: 0x8, addend: 0x0, symName: __ZNSt3__117__compressed_pairImNS_9allocatorImEEEC2B7v160006IiNS_18__default_init_tagEEEOT_OT0_, symObjAddr: 0xD3D8, symBinAddr: 0x100010DF0, symSize: 0xE8 }
  - { offsetInCU: 0x12F5E, offset: 0x12F5E, size: 0x8, addend: 0x0, symName: __ZNSt3__16vectorIbNS_9allocatorIbEEE11__vallocateB7v160006Em, symObjAddr: 0xCED8, symBinAddr: 0x1000108F0, symSize: 0x138 }
  - { offsetInCU: 0x1304D, offset: 0x1304D, size: 0x8, addend: 0x0, symName: __ZNSt3__16vectorIbNS_9allocatorIbEEE18__construct_at_endB7v160006Emb, symObjAddr: 0xD010, symBinAddr: 0x100010A28, symSize: 0x3C8 }
  - { offsetInCU: 0x13153, offset: 0x13153, size: 0x8, addend: 0x0, symName: __ZNKSt3__16vectorIbNS_9allocatorIbEEE7__allocB7v160006Ev, symObjAddr: 0xD6A4, symBinAddr: 0x1000110BC, symSize: 0x70 }
  - { offsetInCU: 0x13188, offset: 0x13188, size: 0x8, addend: 0x0, symName: __ZNSt3__16vectorIbNS_9allocatorIbEEE7__allocB7v160006Ev, symObjAddr: 0xD5C4, symBinAddr: 0x100010FDC, symSize: 0x70 }
  - { offsetInCU: 0x131BD, offset: 0x131BD, size: 0x8, addend: 0x0, symName: __ZNSt3__117__compressed_pairImNS_9allocatorImEEE5firstB7v160006Ev, symObjAddr: 0xD8BC, symBinAddr: 0x1000112D4, symSize: 0xCC }
  - { offsetInCU: 0x13201, offset: 0x13201, size: 0x8, addend: 0x0, symName: __ZNKSt3__16vectorIbNS_9allocatorIbEEE20__throw_length_errorB7v160006Ev, symObjAddr: 0xD53C, symBinAddr: 0x100010F54, symSize: 0x44 }
  - { offsetInCU: 0x132F0, offset: 0x132F0, size: 0x8, addend: 0x0, symName: __ZNSt3__122__compressed_pair_elemINS_9allocatorImEELi1ELb1EEC2B7v160006ENS_18__default_init_tagE, symObjAddr: 0xD4C0, symBinAddr: 0x100010ED8, symSize: 0x7C }
  - { offsetInCU: 0x133C0, offset: 0x133C0, size: 0x8, addend: 0x0, symName: __ZNSt3__117__compressed_pairImNS_9allocatorImEEE6secondB7v160006Ev, symObjAddr: 0xD7E8, symBinAddr: 0x100011200, symSize: 0xD4 }
  - { offsetInCU: 0x13403, offset: 0x13403, size: 0x8, addend: 0x0, symName: __ZNSt3__16vectorIbNS_9allocatorIbEEE5__capB7v160006Ev, symObjAddr: 0xD634, symBinAddr: 0x10001104C, symSize: 0x70 }
  - { offsetInCU: 0x13433, offset: 0x13433, size: 0x8, addend: 0x0, symName: __ZNKSt3__117__compressed_pairImNS_9allocatorImEEE6secondB7v160006Ev, symObjAddr: 0xD714, symBinAddr: 0x10001112C, symSize: 0xD4 }
...
